ARM GAS  /var/folders/nm/rdtk7lzx1rb7s7p13pzvn_qr0000gn/T//ccdQxqBE.s 			page 1


   1              		.cpu cortex-m7
   2              		.arch armv7e-m
   3              		.fpu fpv5-d16
   4              		.eabi_attribute 28, 1
   5              		.eabi_attribute 20, 1
   6              		.eabi_attribute 21, 1
   7              		.eabi_attribute 23, 3
   8              		.eabi_attribute 24, 1
   9              		.eabi_attribute 25, 1
  10              		.eabi_attribute 26, 1
  11              		.eabi_attribute 30, 2
  12              		.eabi_attribute 34, 1
  13              		.eabi_attribute 18, 4
  14              		.file	"TerrariumMultiEffect.cpp"
  15              		.text
  16              	.Ltext0:
  17              		.cfi_sections	.debug_frame
  18              		.section	.text._ZN5daisy3LedD2Ev,"axG",%progbits,_ZN5daisy3LedD5Ev,comdat
  19              		.align	1
  20              		.p2align 2,,3
  21              		.weak	_ZN5daisy3LedD2Ev
  22              		.syntax unified
  23              		.thumb
  24              		.thumb_func
  26              	_ZN5daisy3LedD2Ev:
  27              	.LVL0:
  28              	.LFB1811:
  29              		.file 1 "../../libDaisy//src/hid/led.h"
   1:../../libDaisy//src/hid/led.h **** 
   2:../../libDaisy//src/hid/led.h **** #pragma once
   3:../../libDaisy//src/hid/led.h **** #ifndef DSY_LED_H
   4:../../libDaisy//src/hid/led.h **** #define DSY_LED_H
   5:../../libDaisy//src/hid/led.h **** #include "daisy_core.h"
   6:../../libDaisy//src/hid/led.h **** #include "per/gpio.h"
   7:../../libDaisy//src/hid/led.h **** 
   8:../../libDaisy//src/hid/led.h **** /* TODO - Get this set up to work with the dev_leddriver stuff as well
   9:../../libDaisy//src/hid/led.h **** - Setup Hardware PWM for pins that have it
  10:../../libDaisy//src/hid/led.h **** */
  11:../../libDaisy//src/hid/led.h **** 
  12:../../libDaisy//src/hid/led.h **** namespace daisy
  13:../../libDaisy//src/hid/led.h **** {
  14:../../libDaisy//src/hid/led.h **** /**
  15:../../libDaisy//src/hid/led.h ****     @brief LED Class providing simple Software PWM ability, etc \n 
  16:../../libDaisy//src/hid/led.h ****     Eventually this will work with hardware PWM, and external LED Driver devices as well.
  17:../../libDaisy//src/hid/led.h ****     @author shensley
  18:../../libDaisy//src/hid/led.h ****     @date March 2020
  19:../../libDaisy//src/hid/led.h ****     @ingroup feedback
  20:../../libDaisy//src/hid/led.h **** */
  21:../../libDaisy//src/hid/led.h **** class Led
  22:../../libDaisy//src/hid/led.h **** {
  23:../../libDaisy//src/hid/led.h ****   public:
  24:../../libDaisy//src/hid/led.h ****     Led() {}
  25:../../libDaisy//src/hid/led.h ****     ~Led() {}
  30              		.loc 1 25 5 view -0
  31              		.cfi_startproc
  32              		@ args = 0, pretend = 0, frame = 0
  33              		@ frame_needed = 0, uses_anonymous_args = 0
ARM GAS  /var/folders/nm/rdtk7lzx1rb7s7p13pzvn_qr0000gn/T//ccdQxqBE.s 			page 2


  34              		@ link register save eliminated.
  35              		.loc 1 25 13 is_stmt 0 view .LVU1
  36 0000 7047     		bx	lr
  37              		.cfi_endproc
  38              	.LFE1811:
  40              		.weak	_ZN5daisy3LedD1Ev
  41              		.thumb_set _ZN5daisy3LedD1Ev,_ZN5daisy3LedD2Ev
  42 0002 00BF     		.section	.text._ZN5daisy10DaisyPetalD2Ev,"axG",%progbits,_ZN5daisy10DaisyPetalD5Ev,comdat
  43              		.align	1
  44              		.p2align 2,,3
  45              		.weak	_ZN5daisy10DaisyPetalD2Ev
  46              		.syntax unified
  47              		.thumb
  48              		.thumb_func
  50              	_ZN5daisy10DaisyPetalD2Ev:
  51              	.LVL1:
  52              	.LFB2541:
  53              		.file 2 "../../libDaisy//src/daisy_petal.h"
   1:../../libDaisy//src/daisy_petal.h **** #pragma once
   2:../../libDaisy//src/daisy_petal.h **** #ifndef DSY_PETAL_H
   3:../../libDaisy//src/daisy_petal.h **** #define DSY_PETAL_H /**< & */
   4:../../libDaisy//src/daisy_petal.h **** 
   5:../../libDaisy//src/daisy_petal.h **** #include "daisy_seed.h"
   6:../../libDaisy//src/daisy_petal.h **** 
   7:../../libDaisy//src/daisy_petal.h **** namespace daisy
   8:../../libDaisy//src/daisy_petal.h **** {
   9:../../libDaisy//src/daisy_petal.h **** /**
  10:../../libDaisy//src/daisy_petal.h ****    @brief Helpers and hardware definitions for daisy petal.
  11:../../libDaisy//src/daisy_petal.h ****    @ingroup boards
  12:../../libDaisy//src/daisy_petal.h **** */
  13:../../libDaisy//src/daisy_petal.h **** class DaisyPetal
  14:../../libDaisy//src/daisy_petal.h **** {
  15:../../libDaisy//src/daisy_petal.h ****   public:
  16:../../libDaisy//src/daisy_petal.h ****     /** Switches */
  17:../../libDaisy//src/daisy_petal.h ****     enum Sw
  18:../../libDaisy//src/daisy_petal.h ****     {
  19:../../libDaisy//src/daisy_petal.h ****         SW_1,    /**< Footswitch */
  20:../../libDaisy//src/daisy_petal.h ****         SW_2,    /**< Footswitch */
  21:../../libDaisy//src/daisy_petal.h ****         SW_3,    /**< Footswitch */
  22:../../libDaisy//src/daisy_petal.h ****         SW_4,    /**< Footswitch */
  23:../../libDaisy//src/daisy_petal.h ****         SW_5,    /**< Toggle */
  24:../../libDaisy//src/daisy_petal.h ****         SW_6,    /**< Toggle */
  25:../../libDaisy//src/daisy_petal.h ****         SW_7,    /**< Toggle */
  26:../../libDaisy//src/daisy_petal.h ****         SW_LAST, /**< Last enum item */
  27:../../libDaisy//src/daisy_petal.h ****     };
  28:../../libDaisy//src/daisy_petal.h **** 
  29:../../libDaisy//src/daisy_petal.h ****     /** Knobs */
  30:../../libDaisy//src/daisy_petal.h ****     enum Knob
  31:../../libDaisy//src/daisy_petal.h ****     {
  32:../../libDaisy//src/daisy_petal.h ****         KNOB_1,    /**< & */
  33:../../libDaisy//src/daisy_petal.h ****         KNOB_2,    /**< & */
  34:../../libDaisy//src/daisy_petal.h ****         KNOB_3,    /**< & */
  35:../../libDaisy//src/daisy_petal.h ****         KNOB_4,    /**< & */
  36:../../libDaisy//src/daisy_petal.h ****         KNOB_5,    /**< & */
  37:../../libDaisy//src/daisy_petal.h ****         KNOB_6,    /**< & */
  38:../../libDaisy//src/daisy_petal.h ****         KNOB_LAST, /**< & */
  39:../../libDaisy//src/daisy_petal.h ****     };
ARM GAS  /var/folders/nm/rdtk7lzx1rb7s7p13pzvn_qr0000gn/T//ccdQxqBE.s 			page 3


  40:../../libDaisy//src/daisy_petal.h **** 
  41:../../libDaisy//src/daisy_petal.h ****     /** Leds in ringled */
  42:../../libDaisy//src/daisy_petal.h ****     enum RingLed
  43:../../libDaisy//src/daisy_petal.h ****     {
  44:../../libDaisy//src/daisy_petal.h ****         RING_LED_1,   /**< & */
  45:../../libDaisy//src/daisy_petal.h ****         RING_LED_2,   /**< & */
  46:../../libDaisy//src/daisy_petal.h ****         RING_LED_3,   /**< & */
  47:../../libDaisy//src/daisy_petal.h ****         RING_LED_4,   /**< & */
  48:../../libDaisy//src/daisy_petal.h ****         RING_LED_5,   /**< & */
  49:../../libDaisy//src/daisy_petal.h ****         RING_LED_6,   /**< & */
  50:../../libDaisy//src/daisy_petal.h ****         RING_LED_7,   /**< & */
  51:../../libDaisy//src/daisy_petal.h ****         RING_LED_8,   /**< & */
  52:../../libDaisy//src/daisy_petal.h ****         RING_LED_LAST /**< & */
  53:../../libDaisy//src/daisy_petal.h ****     };
  54:../../libDaisy//src/daisy_petal.h **** 
  55:../../libDaisy//src/daisy_petal.h ****     /** footswitch leds */
  56:../../libDaisy//src/daisy_petal.h ****     enum FootswitchLed
  57:../../libDaisy//src/daisy_petal.h ****     {
  58:../../libDaisy//src/daisy_petal.h ****         FOOTSWITCH_LED_1,    /**< & */
  59:../../libDaisy//src/daisy_petal.h ****         FOOTSWITCH_LED_2,    /**< & */
  60:../../libDaisy//src/daisy_petal.h ****         FOOTSWITCH_LED_3,    /**< & */
  61:../../libDaisy//src/daisy_petal.h ****         FOOTSWITCH_LED_4,    /**< & */
  62:../../libDaisy//src/daisy_petal.h ****         FOOTSWITCH_LED_LAST, /**< & */
  63:../../libDaisy//src/daisy_petal.h ****     };
  64:../../libDaisy//src/daisy_petal.h **** 
  65:../../libDaisy//src/daisy_petal.h ****     /** Constructor */
  66:../../libDaisy//src/daisy_petal.h ****     DaisyPetal() {}
  67:../../libDaisy//src/daisy_petal.h ****     /** Destructor */
  68:../../libDaisy//src/daisy_petal.h ****     ~DaisyPetal() {}
  54              		.loc 2 68 5 is_stmt 1 view -0
  55              		.cfi_startproc
  56              		@ args = 0, pretend = 0, frame = 0
  57              		@ frame_needed = 0, uses_anonymous_args = 0
  58              		@ link register save eliminated.
  59              	.LBB344:
  60              	.LBI344:
  61              		.file 3 "../../libDaisy//src/hid/ctrl.h"
   1:../../libDaisy//src/hid/ctrl.h **** #pragma once
   2:../../libDaisy//src/hid/ctrl.h **** #ifndef DSY_KNOB_H
   3:../../libDaisy//src/hid/ctrl.h **** #define DSY_KNOB_H /**< & */
   4:../../libDaisy//src/hid/ctrl.h **** #include <stdint.h>
   5:../../libDaisy//src/hid/ctrl.h **** 
   6:../../libDaisy//src/hid/ctrl.h **** #ifdef __cplusplus
   7:../../libDaisy//src/hid/ctrl.h **** namespace daisy
   8:../../libDaisy//src/hid/ctrl.h **** {
   9:../../libDaisy//src/hid/ctrl.h **** /**
  10:../../libDaisy//src/hid/ctrl.h ****     @brief Hardware Interface for control inputs \n 
  11:../../libDaisy//src/hid/ctrl.h ****     Primarily designed for ADC input controls such as \n 
  12:../../libDaisy//src/hid/ctrl.h ****     potentiometers, and control voltage. \n 
  13:../../libDaisy//src/hid/ctrl.h ****     @author Stephen Hensley
  14:../../libDaisy//src/hid/ctrl.h ****     @date November 2019
  15:../../libDaisy//src/hid/ctrl.h ****     @ingroup controls
  16:../../libDaisy//src/hid/ctrl.h **** */
  17:../../libDaisy//src/hid/ctrl.h **** class AnalogControl
  18:../../libDaisy//src/hid/ctrl.h **** {
  19:../../libDaisy//src/hid/ctrl.h ****   public:
  20:../../libDaisy//src/hid/ctrl.h ****     /** Constructor */
ARM GAS  /var/folders/nm/rdtk7lzx1rb7s7p13pzvn_qr0000gn/T//ccdQxqBE.s 			page 4


  21:../../libDaisy//src/hid/ctrl.h ****     AnalogControl() {}
  22:../../libDaisy//src/hid/ctrl.h ****     /** destructor */
  23:../../libDaisy//src/hid/ctrl.h ****     ~AnalogControl() {}
  62              		.loc 3 23 5 view .LVU3
  63              		.loc 3 23 5 is_stmt 0 view .LVU4
  64              	.LBE344:
  65              	.LBB345:
  66              	.LBI345:
  67              		.file 4 "../../libDaisy//src/hid/encoder.h"
   1:../../libDaisy//src/hid/encoder.h **** #pragma once
   2:../../libDaisy//src/hid/encoder.h **** #ifndef DSY_ENCODER_H
   3:../../libDaisy//src/hid/encoder.h **** #define DSY_ENCODER_H
   4:../../libDaisy//src/hid/encoder.h **** #include "daisy_core.h"
   5:../../libDaisy//src/hid/encoder.h **** #include "per/gpio.h"
   6:../../libDaisy//src/hid/encoder.h **** #include "hid/switch.h"
   7:../../libDaisy//src/hid/encoder.h **** 
   8:../../libDaisy//src/hid/encoder.h **** namespace daisy
   9:../../libDaisy//src/hid/encoder.h **** {
  10:../../libDaisy//src/hid/encoder.h **** /** 
  11:../../libDaisy//src/hid/encoder.h ****     @brief Generic Class for handling Quadrature Encoders \n 
  12:../../libDaisy//src/hid/encoder.h ****     Inspired/influenced by Mutable Instruments (pichenettes) Encoder classes
  13:../../libDaisy//src/hid/encoder.h ****     @author Stephen Hensley
  14:../../libDaisy//src/hid/encoder.h ****     @date December 2019
  15:../../libDaisy//src/hid/encoder.h ****     @ingroup controls
  16:../../libDaisy//src/hid/encoder.h **** */
  17:../../libDaisy//src/hid/encoder.h **** class Encoder
  18:../../libDaisy//src/hid/encoder.h **** {
  19:../../libDaisy//src/hid/encoder.h ****   public:
  20:../../libDaisy//src/hid/encoder.h ****     Encoder() {}
  21:../../libDaisy//src/hid/encoder.h ****     ~Encoder() {}
  68              		.loc 4 21 5 is_stmt 1 view .LVU5
  69              	.LBB346:
  70              	.LBI346:
  71              		.file 5 "../../libDaisy//src/hid/switch.h"
   1:../../libDaisy//src/hid/switch.h **** #pragma once
   2:../../libDaisy//src/hid/switch.h **** #ifndef DSY_SWITCH_H
   3:../../libDaisy//src/hid/switch.h **** #define DSY_SWITCH_H
   4:../../libDaisy//src/hid/switch.h **** #include "daisy_core.h"
   5:../../libDaisy//src/hid/switch.h **** #include "per/gpio.h"
   6:../../libDaisy//src/hid/switch.h **** #include "sys/system.h"
   7:../../libDaisy//src/hid/switch.h **** 
   8:../../libDaisy//src/hid/switch.h **** namespace daisy
   9:../../libDaisy//src/hid/switch.h **** {
  10:../../libDaisy//src/hid/switch.h **** /** 
  11:../../libDaisy//src/hid/switch.h ****     Generic Class for handling momentary/latching switches \n 
  12:../../libDaisy//src/hid/switch.h ****     Inspired/influenced by Mutable Instruments (pichenettes) Switch classes
  13:../../libDaisy//src/hid/switch.h ****     @author Stephen Hensley
  14:../../libDaisy//src/hid/switch.h ****     @date December 2019
  15:../../libDaisy//src/hid/switch.h ****     @ingroup controls
  16:../../libDaisy//src/hid/switch.h **** */
  17:../../libDaisy//src/hid/switch.h **** class Switch
  18:../../libDaisy//src/hid/switch.h **** {
  19:../../libDaisy//src/hid/switch.h ****   public:
  20:../../libDaisy//src/hid/switch.h ****     /** Specifies the expected behavior of the switch */
  21:../../libDaisy//src/hid/switch.h ****     enum Type
  22:../../libDaisy//src/hid/switch.h ****     {
  23:../../libDaisy//src/hid/switch.h ****         TYPE_TOGGLE,    /**< & */
ARM GAS  /var/folders/nm/rdtk7lzx1rb7s7p13pzvn_qr0000gn/T//ccdQxqBE.s 			page 5


  24:../../libDaisy//src/hid/switch.h ****         TYPE_MOMENTARY, /**< & */
  25:../../libDaisy//src/hid/switch.h ****     };
  26:../../libDaisy//src/hid/switch.h ****     /** Specifies whether the pressed is HIGH or LOW. */
  27:../../libDaisy//src/hid/switch.h ****     enum Polarity
  28:../../libDaisy//src/hid/switch.h ****     {
  29:../../libDaisy//src/hid/switch.h ****         POLARITY_NORMAL,   /**< & */
  30:../../libDaisy//src/hid/switch.h ****         POLARITY_INVERTED, /**< & */
  31:../../libDaisy//src/hid/switch.h ****     };
  32:../../libDaisy//src/hid/switch.h **** 
  33:../../libDaisy//src/hid/switch.h ****     /** Specifies whether to use built-in Pull Up/Down resistors to hold button at a given state wh
  34:../../libDaisy//src/hid/switch.h ****     enum Pull
  35:../../libDaisy//src/hid/switch.h ****     {
  36:../../libDaisy//src/hid/switch.h ****         PULL_UP,   /**< & */
  37:../../libDaisy//src/hid/switch.h ****         PULL_DOWN, /**< & */
  38:../../libDaisy//src/hid/switch.h ****         PULL_NONE, /**< & */
  39:../../libDaisy//src/hid/switch.h ****     };
  40:../../libDaisy//src/hid/switch.h **** 
  41:../../libDaisy//src/hid/switch.h ****     Switch() {}
  42:../../libDaisy//src/hid/switch.h ****     ~Switch() {}
  72              		.loc 5 42 5 view .LVU6
  73              		.loc 5 42 5 is_stmt 0 view .LVU7
  74              	.LBE346:
  75              	.LBE345:
  76              	.LBB347:
  77              	.LBI347:
  78              		.file 6 "../../libDaisy//src/daisy_seed.h"
   1:../../libDaisy//src/daisy_seed.h **** #pragma once
   2:../../libDaisy//src/daisy_seed.h **** #ifndef DSY_SEED_H
   3:../../libDaisy//src/daisy_seed.h **** #define DSY_SEED_H
   4:../../libDaisy//src/daisy_seed.h **** 
   5:../../libDaisy//src/daisy_seed.h **** #include "daisy.h"
   6:../../libDaisy//src/daisy_seed.h **** 
   7:../../libDaisy//src/daisy_seed.h **** //Uncomment this out if you're still using the rev2 hardware
   8:../../libDaisy//src/daisy_seed.h **** //#define SEED_REV2
   9:../../libDaisy//src/daisy_seed.h **** 
  10:../../libDaisy//src/daisy_seed.h **** namespace daisy
  11:../../libDaisy//src/daisy_seed.h **** {
  12:../../libDaisy//src/daisy_seed.h **** /**
  13:../../libDaisy//src/daisy_seed.h ****    @brief This is the higher-level interface for the Daisy board. \n 
  14:../../libDaisy//src/daisy_seed.h ****     All basic peripheral configuration/initialization is setup here. \n
  15:../../libDaisy//src/daisy_seed.h **** 
  16:../../libDaisy//src/daisy_seed.h ****    @ingroup boards
  17:../../libDaisy//src/daisy_seed.h **** */
  18:../../libDaisy//src/daisy_seed.h **** class DaisySeed
  19:../../libDaisy//src/daisy_seed.h **** {
  20:../../libDaisy//src/daisy_seed.h ****   public:
  21:../../libDaisy//src/daisy_seed.h ****     DaisySeed() {}
  22:../../libDaisy//src/daisy_seed.h ****     ~DaisySeed() {}
  79              		.loc 6 22 5 is_stmt 1 view .LVU8
  80              	.LBB348:
  81              	.LBI348:
  82              		.file 7 "../../libDaisy//src/sys/system.h"
   1:../../libDaisy//src/sys/system.h **** #ifndef DSY_SYSTEM_H
   2:../../libDaisy//src/sys/system.h **** #define DSY_SYSTEM_H
   3:../../libDaisy//src/sys/system.h **** 
   4:../../libDaisy//src/sys/system.h **** #ifndef UNIT_TEST // for unit tests, a dummy implementation is provided below
   5:../../libDaisy//src/sys/system.h **** 
ARM GAS  /var/folders/nm/rdtk7lzx1rb7s7p13pzvn_qr0000gn/T//ccdQxqBE.s 			page 6


   6:../../libDaisy//src/sys/system.h **** #include <cstdint>
   7:../../libDaisy//src/sys/system.h **** #include "per/tim.h"
   8:../../libDaisy//src/sys/system.h **** 
   9:../../libDaisy//src/sys/system.h **** namespace daisy
  10:../../libDaisy//src/sys/system.h **** {
  11:../../libDaisy//src/sys/system.h **** /** A handle for interacting with the Core System. 
  12:../../libDaisy//src/sys/system.h ****  ** This includes the Clock tree, MPU, global DMA initialization,
  13:../../libDaisy//src/sys/system.h ****  ** cache handling, and any other necessary global initiailzation
  14:../../libDaisy//src/sys/system.h ****  **
  15:../../libDaisy//src/sys/system.h ****  ** @author shensley
  16:../../libDaisy//src/sys/system.h ****  ** @ingroup system
  17:../../libDaisy//src/sys/system.h ****  */
  18:../../libDaisy//src/sys/system.h **** class System
  19:../../libDaisy//src/sys/system.h **** {
  20:../../libDaisy//src/sys/system.h ****   public:
  21:../../libDaisy//src/sys/system.h ****     /** Contains settings for initializing the System */
  22:../../libDaisy//src/sys/system.h ****     struct Config
  23:../../libDaisy//src/sys/system.h ****     {
  24:../../libDaisy//src/sys/system.h ****         /** Specifies the system clock frequency that feeds APB/AHB clocks, etc. */
  25:../../libDaisy//src/sys/system.h ****         enum class SysClkFreq
  26:../../libDaisy//src/sys/system.h ****         {
  27:../../libDaisy//src/sys/system.h ****             FREQ_400MHZ,
  28:../../libDaisy//src/sys/system.h ****             FREQ_480MHZ,
  29:../../libDaisy//src/sys/system.h ****         };
  30:../../libDaisy//src/sys/system.h **** 
  31:../../libDaisy//src/sys/system.h ****         /** Method to call on the struct to set to defaults
  32:../../libDaisy//src/sys/system.h ****          ** CPU Freq set to 400MHz
  33:../../libDaisy//src/sys/system.h ****          ** Cache Enabled 
  34:../../libDaisy//src/sys/system.h ****          ** */
  35:../../libDaisy//src/sys/system.h ****         void Defaults()
  36:../../libDaisy//src/sys/system.h ****         {
  37:../../libDaisy//src/sys/system.h ****             cpu_freq    = SysClkFreq::FREQ_400MHZ;
  38:../../libDaisy//src/sys/system.h ****             use_dcache  = true;
  39:../../libDaisy//src/sys/system.h ****             use_icache  = true;
  40:../../libDaisy//src/sys/system.h ****             skip_clocks = false;
  41:../../libDaisy//src/sys/system.h ****         }
  42:../../libDaisy//src/sys/system.h **** 
  43:../../libDaisy//src/sys/system.h ****         /** Method to call on the struct to set to boost mode:
  44:../../libDaisy//src/sys/system.h ****          ** CPU Freq set to 480MHz
  45:../../libDaisy//src/sys/system.h ****          ** Cache Enabled 
  46:../../libDaisy//src/sys/system.h ****          ** */
  47:../../libDaisy//src/sys/system.h ****         void Boost()
  48:../../libDaisy//src/sys/system.h ****         {
  49:../../libDaisy//src/sys/system.h ****             cpu_freq    = SysClkFreq::FREQ_480MHZ;
  50:../../libDaisy//src/sys/system.h ****             use_dcache  = true;
  51:../../libDaisy//src/sys/system.h ****             use_icache  = true;
  52:../../libDaisy//src/sys/system.h ****             skip_clocks = false;
  53:../../libDaisy//src/sys/system.h ****         }
  54:../../libDaisy//src/sys/system.h **** 
  55:../../libDaisy//src/sys/system.h ****         SysClkFreq cpu_freq;
  56:../../libDaisy//src/sys/system.h ****         bool       use_dcache;
  57:../../libDaisy//src/sys/system.h ****         bool       use_icache;
  58:../../libDaisy//src/sys/system.h ****         bool       skip_clocks;
  59:../../libDaisy//src/sys/system.h ****     };
  60:../../libDaisy//src/sys/system.h **** 
  61:../../libDaisy//src/sys/system.h ****     /** Describes the different regions of memory available to the Daisy
  62:../../libDaisy//src/sys/system.h ****      * 
ARM GAS  /var/folders/nm/rdtk7lzx1rb7s7p13pzvn_qr0000gn/T//ccdQxqBE.s 			page 7


  63:../../libDaisy//src/sys/system.h ****      */
  64:../../libDaisy//src/sys/system.h ****     enum MemoryRegion
  65:../../libDaisy//src/sys/system.h ****     {
  66:../../libDaisy//src/sys/system.h ****         INTERNAL_FLASH = 0,
  67:../../libDaisy//src/sys/system.h ****         ITCMRAM,
  68:../../libDaisy//src/sys/system.h ****         DTCMRAM,
  69:../../libDaisy//src/sys/system.h ****         SRAM_D1,
  70:../../libDaisy//src/sys/system.h ****         SRAM_D2,
  71:../../libDaisy//src/sys/system.h ****         SRAM_D3,
  72:../../libDaisy//src/sys/system.h ****         SDRAM,
  73:../../libDaisy//src/sys/system.h ****         QSPI,
  74:../../libDaisy//src/sys/system.h ****         INVALID_ADDRESS,
  75:../../libDaisy//src/sys/system.h ****     };
  76:../../libDaisy//src/sys/system.h **** 
  77:../../libDaisy//src/sys/system.h ****     System() {}
  78:../../libDaisy//src/sys/system.h ****     ~System() {}
  83              		.loc 7 78 5 view .LVU9
  84              		.loc 7 78 5 is_stmt 0 view .LVU10
  85              	.LBE348:
  86              	.LBB349:
  87              	.LBI349:
  88              		.file 8 "../../libDaisy//src/hid/usb.h"
   1:../../libDaisy//src/hid/usb.h **** #pragma once
   2:../../libDaisy//src/hid/usb.h **** #ifndef DSY_HID_USB_H
   3:../../libDaisy//src/hid/usb.h **** #define DSY_HID_USB_H
   4:../../libDaisy//src/hid/usb.h **** #include <stdint.h>
   5:../../libDaisy//src/hid/usb.h **** #include <stdlib.h>
   6:../../libDaisy//src/hid/usb.h **** 
   7:../../libDaisy//src/hid/usb.h **** namespace daisy
   8:../../libDaisy//src/hid/usb.h **** /** @addtogroup human_interface
   9:../../libDaisy//src/hid/usb.h ****     @{
  10:../../libDaisy//src/hid/usb.h **** */
  11:../../libDaisy//src/hid/usb.h **** 
  12:../../libDaisy//src/hid/usb.h **** {
  13:../../libDaisy//src/hid/usb.h **** /** 
  14:../../libDaisy//src/hid/usb.h ****     @brief Interface for initializing and using the USB Peripherals on the daisy
  15:../../libDaisy//src/hid/usb.h ****     @author Stephen Hensley
  16:../../libDaisy//src/hid/usb.h ****     @date December 2019
  17:../../libDaisy//src/hid/usb.h **** */
  18:../../libDaisy//src/hid/usb.h **** class UsbHandle
  19:../../libDaisy//src/hid/usb.h **** {
  20:../../libDaisy//src/hid/usb.h ****   public:
  21:../../libDaisy//src/hid/usb.h ****     /** Return values for USBHandle Functions */
  22:../../libDaisy//src/hid/usb.h ****     enum class Result
  23:../../libDaisy//src/hid/usb.h ****     {
  24:../../libDaisy//src/hid/usb.h ****         OK,
  25:../../libDaisy//src/hid/usb.h ****         ERR,
  26:../../libDaisy//src/hid/usb.h ****     };
  27:../../libDaisy//src/hid/usb.h **** 
  28:../../libDaisy//src/hid/usb.h ****     /** Specified which of the two USB Peripherals to initialize. */
  29:../../libDaisy//src/hid/usb.h ****     enum UsbPeriph
  30:../../libDaisy//src/hid/usb.h ****     {
  31:../../libDaisy//src/hid/usb.h ****         FS_INTERNAL, /**< Internal pin */
  32:../../libDaisy//src/hid/usb.h ****         FS_EXTERNAL, /**< FS External D+ pin is Pin 38 (GPIO32). FS External D- pin is Pin 37 (GPIO
  33:../../libDaisy//src/hid/usb.h ****         FS_BOTH,     /**< Both */
  34:../../libDaisy//src/hid/usb.h ****     };
  35:../../libDaisy//src/hid/usb.h **** 
ARM GAS  /var/folders/nm/rdtk7lzx1rb7s7p13pzvn_qr0000gn/T//ccdQxqBE.s 			page 8


  36:../../libDaisy//src/hid/usb.h **** 
  37:../../libDaisy//src/hid/usb.h ****     /** Function called upon reception of a buffer */
  38:../../libDaisy//src/hid/usb.h ****     typedef void (*ReceiveCallback)(uint8_t* buff, uint32_t* len);
  39:../../libDaisy//src/hid/usb.h **** 
  40:../../libDaisy//src/hid/usb.h ****     UsbHandle() {}
  41:../../libDaisy//src/hid/usb.h **** 
  42:../../libDaisy//src/hid/usb.h ****     ~UsbHandle() {}
  89              		.loc 8 42 5 is_stmt 1 view .LVU11
  90              		.loc 8 42 5 is_stmt 0 view .LVU12
  91              	.LBE349:
  92              	.LBB350:
  93              	.LBI350:
  94              		.file 9 "../../libDaisy//src/per/adc.h"
   1:../../libDaisy//src/per/adc.h **** #pragma once
   2:../../libDaisy//src/per/adc.h **** #ifndef DSY_ADC_H
   3:../../libDaisy//src/per/adc.h **** #define DSY_ADC_H /**< Macro */
   4:../../libDaisy//src/per/adc.h **** #include <stdint.h>
   5:../../libDaisy//src/per/adc.h **** #include <stdlib.h>
   6:../../libDaisy//src/per/adc.h **** #include "daisy_core.h"
   7:../../libDaisy//src/per/adc.h **** #include "per/gpio.h"
   8:../../libDaisy//src/per/adc.h **** 
   9:../../libDaisy//src/per/adc.h **** #define DSY_ADC_MAX_CHANNELS 16 /**< Maximum number of ADC channels */
  10:../../libDaisy//src/per/adc.h **** 
  11:../../libDaisy//src/per/adc.h **** namespace daisy
  12:../../libDaisy//src/per/adc.h **** {
  13:../../libDaisy//src/per/adc.h **** /** @addtogroup per_analog
  14:../../libDaisy//src/per/adc.h ****     @{
  15:../../libDaisy//src/per/adc.h **** */
  16:../../libDaisy//src/per/adc.h **** 
  17:../../libDaisy//src/per/adc.h **** /* While there may not be many configuration options here,
  18:../../libDaisy//src/per/adc.h **** using a struct like this allows us to add more configuration
  19:../../libDaisy//src/per/adc.h **** later without breaking existing functionality.
  20:../../libDaisy//src/per/adc.h **** */
  21:../../libDaisy//src/per/adc.h **** 
  22:../../libDaisy//src/per/adc.h **** /** @brief   Configuration Structure for an ADC Channel 
  23:../../libDaisy//src/per/adc.h ****  *  @details This can be used to configure a a single input, 
  24:../../libDaisy//src/per/adc.h ****  *           or a multiplexed input, allowing up to 8 inputs on 
  25:../../libDaisy//src/per/adc.h ****  *           one channel.
  26:../../libDaisy//src/per/adc.h ****  *  @note    Sharing data lines to multiple muxes _is_ possible, but
  27:../../libDaisy//src/per/adc.h ****  *           each channel sharing data lines must be set to the maximum
  28:../../libDaisy//src/per/adc.h ****  *           number of channels, even if some multiplexers have fewer
  29:../../libDaisy//src/per/adc.h ****  *           inputs connected.
  30:../../libDaisy//src/per/adc.h **** */
  31:../../libDaisy//src/per/adc.h **** struct AdcChannelConfig
  32:../../libDaisy//src/per/adc.h **** {
  33:../../libDaisy//src/per/adc.h ****     /** Which pin to use for multiplexing */
  34:../../libDaisy//src/per/adc.h ****     enum MuxPin
  35:../../libDaisy//src/per/adc.h ****     {
  36:../../libDaisy//src/per/adc.h ****         MUX_SEL_0,    /**< & */
  37:../../libDaisy//src/per/adc.h ****         MUX_SEL_1,    /**< & */
  38:../../libDaisy//src/per/adc.h ****         MUX_SEL_2,    /**< & */
  39:../../libDaisy//src/per/adc.h ****         MUX_SEL_LAST, /**< & */
  40:../../libDaisy//src/per/adc.h ****     };
  41:../../libDaisy//src/per/adc.h **** 
  42:../../libDaisy//src/per/adc.h ****     /** Initializes a single ADC pin as an ADC. 
  43:../../libDaisy//src/per/adc.h ****     \param pin Pin to init.
  44:../../libDaisy//src/per/adc.h ****      */
ARM GAS  /var/folders/nm/rdtk7lzx1rb7s7p13pzvn_qr0000gn/T//ccdQxqBE.s 			page 9


  45:../../libDaisy//src/per/adc.h ****     void InitSingle(dsy_gpio_pin pin);
  46:../../libDaisy//src/per/adc.h **** 
  47:../../libDaisy//src/per/adc.h ****     /** 
  48:../../libDaisy//src/per/adc.h ****     Initializes a single ADC pin as a Multiplexed ADC.
  49:../../libDaisy//src/per/adc.h ****     Requires a CD405X Multiplexer connected to the pin.
  50:../../libDaisy//src/per/adc.h ****     You only need to supply the mux pins that are required,
  51:../../libDaisy//src/per/adc.h ****     e.g. a 4052 mux would only require mux_0 and mux_1.
  52:../../libDaisy//src/per/adc.h ****     Internal Callbacks handle the pin addressing.
  53:../../libDaisy//src/per/adc.h ****     \param mux_channels must be 1-8
  54:../../libDaisy//src/per/adc.h ****     \param mux_0 First mux pin
  55:../../libDaisy//src/per/adc.h ****     \param mux_1 Second mux pin
  56:../../libDaisy//src/per/adc.h ****     \param mux_2 Third mux pin
  57:../../libDaisy//src/per/adc.h ****     \param adc_pin &
  58:../../libDaisy//src/per/adc.h ****     */
  59:../../libDaisy//src/per/adc.h ****     void InitMux(dsy_gpio_pin adc_pin,
  60:../../libDaisy//src/per/adc.h ****                  size_t       mux_channels,
  61:../../libDaisy//src/per/adc.h ****                  dsy_gpio_pin mux_0,
  62:../../libDaisy//src/per/adc.h ****                  dsy_gpio_pin mux_1 = {DSY_GPIOX, 0},
  63:../../libDaisy//src/per/adc.h ****                  dsy_gpio_pin mux_2 = {DSY_GPIOX, 0});
  64:../../libDaisy//src/per/adc.h **** 
  65:../../libDaisy//src/per/adc.h ****     dsy_gpio pin_;                   /**< & */
  66:../../libDaisy//src/per/adc.h ****     dsy_gpio mux_pin_[MUX_SEL_LAST]; /**< & */
  67:../../libDaisy//src/per/adc.h ****     uint8_t  mux_channels_;          /**< & */
  68:../../libDaisy//src/per/adc.h **** };
  69:../../libDaisy//src/per/adc.h **** 
  70:../../libDaisy//src/per/adc.h **** /**
  71:../../libDaisy//src/per/adc.h ****    @brief Handler for analog to digital conversion
  72:../../libDaisy//src/per/adc.h **** */
  73:../../libDaisy//src/per/adc.h **** class AdcHandle
  74:../../libDaisy//src/per/adc.h **** {
  75:../../libDaisy//src/per/adc.h ****   public:
  76:../../libDaisy//src/per/adc.h ****     /** Supported oversampling amounts */
  77:../../libDaisy//src/per/adc.h ****     enum OverSampling
  78:../../libDaisy//src/per/adc.h ****     {
  79:../../libDaisy//src/per/adc.h ****         OVS_NONE, /**< & */
  80:../../libDaisy//src/per/adc.h ****         OVS_4,    /**< & */
  81:../../libDaisy//src/per/adc.h ****         OVS_8,    /**< & */
  82:../../libDaisy//src/per/adc.h ****         OVS_16,   /**< & */
  83:../../libDaisy//src/per/adc.h ****         OVS_32,   /**< & */
  84:../../libDaisy//src/per/adc.h ****         OVS_64,   /**< & */
  85:../../libDaisy//src/per/adc.h ****         OVS_128,  /**< & */
  86:../../libDaisy//src/per/adc.h ****         OVS_256,  /**< & */
  87:../../libDaisy//src/per/adc.h ****         OVS_512,  /**< & */
  88:../../libDaisy//src/per/adc.h ****         OVS_1024, /**< & */
  89:../../libDaisy//src/per/adc.h ****         OVS_LAST, /**< & */
  90:../../libDaisy//src/per/adc.h ****     };
  91:../../libDaisy//src/per/adc.h **** 
  92:../../libDaisy//src/per/adc.h ****     AdcHandle() {}
  93:../../libDaisy//src/per/adc.h ****     ~AdcHandle() {}
  95              		.loc 9 93 5 is_stmt 1 view .LVU13
  96              		.loc 9 93 5 is_stmt 0 view .LVU14
  97              	.LBE350:
  98              	.LBB351:
  99              	.LBI351:
 100              		.file 10 "../../libDaisy//src/hid/audio.h"
   1:../../libDaisy//src/hid/audio.h **** #ifndef DSY_AUDIO_H
   2:../../libDaisy//src/hid/audio.h **** #define DSY_AUDIO_H /**< & */
ARM GAS  /var/folders/nm/rdtk7lzx1rb7s7p13pzvn_qr0000gn/T//ccdQxqBE.s 			page 10


   3:../../libDaisy//src/hid/audio.h **** 
   4:../../libDaisy//src/hid/audio.h **** #include "per/sai.h"
   5:../../libDaisy//src/hid/audio.h **** 
   6:../../libDaisy//src/hid/audio.h **** namespace daisy
   7:../../libDaisy//src/hid/audio.h **** {
   8:../../libDaisy//src/hid/audio.h **** /** @brief Audio Engine Handle
   9:../../libDaisy//src/hid/audio.h ****  *  @ingroup audio 
  10:../../libDaisy//src/hid/audio.h ****  *  @details This class allows for higher level access to an audio engine.
  11:../../libDaisy//src/hid/audio.h ****  *           If you're using a SOM like the DaisySeed or DaisyPatchSM (or any 
  12:../../libDaisy//src/hid/audio.h ****  *            board that includes one of those objects) then the intialization
  13:../../libDaisy//src/hid/audio.h ****  *            is already taken  care of.
  14:../../libDaisy//src/hid/audio.h ****  *           If you're setting up your own custom hardware, or need to make changes
  15:../../libDaisy//src/hid/audio.h ****  *           you will have to take the following steps:
  16:../../libDaisy//src/hid/audio.h ****  *             1. Create and Initialize an SaiHandle or two depending on your requirements
  17:../../libDaisy//src/hid/audio.h ****  *             2. Initialize the Audio Handle with the desired settings and the Initialized SaiHand
  18:../../libDaisy//src/hid/audio.h ****  *             3. If the connected codec requires special configuration or initialization, do so
  19:../../libDaisy//src/hid/audio.h ****  *             4. Write a callback method using either the AudioCallback or the InterleavingAudioCa
  20:../../libDaisy//src/hid/audio.h ****  *             5. Start the Audio using one of the StartAudio function
  21:../../libDaisy//src/hid/audio.h ****  */
  22:../../libDaisy//src/hid/audio.h **** class AudioHandle
  23:../../libDaisy//src/hid/audio.h **** {
  24:../../libDaisy//src/hid/audio.h ****   public:
  25:../../libDaisy//src/hid/audio.h ****     /** Manually configurable details about the Audio Engine */
  26:../../libDaisy//src/hid/audio.h ****     /** TODO: Figure out how to get samplerate in here. */
  27:../../libDaisy//src/hid/audio.h ****     struct Config
  28:../../libDaisy//src/hid/audio.h ****     {
  29:../../libDaisy//src/hid/audio.h ****         /** number of samples to process per callback */
  30:../../libDaisy//src/hid/audio.h ****         size_t blocksize;
  31:../../libDaisy//src/hid/audio.h **** 
  32:../../libDaisy//src/hid/audio.h ****         /**< Sample rate of audio */
  33:../../libDaisy//src/hid/audio.h ****         SaiHandle::Config::SampleRate samplerate;
  34:../../libDaisy//src/hid/audio.h **** 
  35:../../libDaisy//src/hid/audio.h ****         /** factor for adjustment before and after callback for hardware that may have extra headro
  36:../../libDaisy//src/hid/audio.h ****         float postgain;
  37:../../libDaisy//src/hid/audio.h **** 
  38:../../libDaisy//src/hid/audio.h ****         /** factor for additional one-sided compensation to audio path for hardware that may
  39:../../libDaisy//src/hid/audio.h ****          *  have unequal input/output ranges
  40:../../libDaisy//src/hid/audio.h ****          */
  41:../../libDaisy//src/hid/audio.h ****         float output_compensation;
  42:../../libDaisy//src/hid/audio.h **** 
  43:../../libDaisy//src/hid/audio.h ****         /** Sets default values for config struct */
  44:../../libDaisy//src/hid/audio.h ****         Config()
  45:../../libDaisy//src/hid/audio.h ****         : blocksize(48),
  46:../../libDaisy//src/hid/audio.h ****           samplerate(SaiHandle::Config::SampleRate::SAI_48KHZ),
  47:../../libDaisy//src/hid/audio.h ****           postgain(1.f),
  48:../../libDaisy//src/hid/audio.h ****           output_compensation(1.f)
  49:../../libDaisy//src/hid/audio.h ****         {
  50:../../libDaisy//src/hid/audio.h ****         }
  51:../../libDaisy//src/hid/audio.h ****     };
  52:../../libDaisy//src/hid/audio.h **** 
  53:../../libDaisy//src/hid/audio.h ****     enum class Result
  54:../../libDaisy//src/hid/audio.h ****     {
  55:../../libDaisy//src/hid/audio.h ****         OK,
  56:../../libDaisy//src/hid/audio.h ****         ERR,
  57:../../libDaisy//src/hid/audio.h ****     };
  58:../../libDaisy//src/hid/audio.h **** 
  59:../../libDaisy//src/hid/audio.h ****     /** Non-Interleaving input buffer
ARM GAS  /var/folders/nm/rdtk7lzx1rb7s7p13pzvn_qr0000gn/T//ccdQxqBE.s 			page 11


  60:../../libDaisy//src/hid/audio.h ****      * Buffer arranged by float[chn][sample] 
  61:../../libDaisy//src/hid/audio.h ****      * const so that the user can't modify the input
  62:../../libDaisy//src/hid/audio.h ****      */
  63:../../libDaisy//src/hid/audio.h ****     typedef const float* const* InputBuffer;
  64:../../libDaisy//src/hid/audio.h **** 
  65:../../libDaisy//src/hid/audio.h ****     /** Non-Interleaving output buffer
  66:../../libDaisy//src/hid/audio.h ****      * Arranged by float[chn][sample] 
  67:../../libDaisy//src/hid/audio.h ****      */
  68:../../libDaisy//src/hid/audio.h ****     typedef float** OutputBuffer;
  69:../../libDaisy//src/hid/audio.h **** 
  70:../../libDaisy//src/hid/audio.h ****     /** Type for a Non-Interleaving audio callback 
  71:../../libDaisy//src/hid/audio.h ****      * Non-Interleaving audio callbacks in daisy will be of this type
  72:../../libDaisy//src/hid/audio.h ****      */
  73:../../libDaisy//src/hid/audio.h ****     typedef void (*AudioCallback)(InputBuffer  in,
  74:../../libDaisy//src/hid/audio.h ****                                   OutputBuffer out,
  75:../../libDaisy//src/hid/audio.h ****                                   size_t       size);
  76:../../libDaisy//src/hid/audio.h **** 
  77:../../libDaisy//src/hid/audio.h ****     /** Interleaving Input buffer
  78:../../libDaisy//src/hid/audio.h ****      ** audio is prepared as { L0, R0, L1, R1, . . . LN, RN }]
  79:../../libDaisy//src/hid/audio.h ****      ** this is const, as the user shouldn't modify it
  80:../../libDaisy//src/hid/audio.h ****     */
  81:../../libDaisy//src/hid/audio.h ****     typedef const float* InterleavingInputBuffer;
  82:../../libDaisy//src/hid/audio.h **** 
  83:../../libDaisy//src/hid/audio.h ****     /** Interleaving Output buffer 
  84:../../libDaisy//src/hid/audio.h ****      ** audio is prepared as { L0, R0, L1, R1, . . . LN, RN }
  85:../../libDaisy//src/hid/audio.h ****     */
  86:../../libDaisy//src/hid/audio.h ****     typedef float* InterleavingOutputBuffer;
  87:../../libDaisy//src/hid/audio.h **** 
  88:../../libDaisy//src/hid/audio.h ****     /** Interleaving Audio Callback 
  89:../../libDaisy//src/hid/audio.h ****      * Interleaving audio callbacks in daisy must be of this type
  90:../../libDaisy//src/hid/audio.h ****      */
  91:../../libDaisy//src/hid/audio.h ****     typedef void (*InterleavingAudioCallback)(InterleavingInputBuffer  in,
  92:../../libDaisy//src/hid/audio.h ****                                               InterleavingOutputBuffer out,
  93:../../libDaisy//src/hid/audio.h ****                                               size_t                   size);
  94:../../libDaisy//src/hid/audio.h **** 
  95:../../libDaisy//src/hid/audio.h ****     AudioHandle() : pimpl_(nullptr) {}
  96:../../libDaisy//src/hid/audio.h ****     ~AudioHandle() {}
 101              		.loc 10 96 5 is_stmt 1 view .LVU15
 102              		.loc 10 96 5 is_stmt 0 view .LVU16
 103              	.LBE351:
 104              	.LBE347:
 105              		.loc 2 68 20 view .LVU17
 106 0000 7047     		bx	lr
 107              		.cfi_endproc
 108              	.LFE2541:
 110              		.weak	_ZN5daisy10DaisyPetalD1Ev
 111              		.thumb_set _ZN5daisy10DaisyPetalD1Ev,_ZN5daisy10DaisyPetalD2Ev
 112 0002 00BF     		.section	.text._ZN7daisysp10OscillatorD2Ev,"axG",%progbits,_ZN7daisysp10OscillatorD5Ev,comdat
 113              		.align	1
 114              		.p2align 2,,3
 115              		.weak	_ZN7daisysp10OscillatorD2Ev
 116              		.syntax unified
 117              		.thumb
 118              		.thumb_func
 120              	_ZN7daisysp10OscillatorD2Ev:
 121              	.LVL2:
 122              	.LFB4230:
ARM GAS  /var/folders/nm/rdtk7lzx1rb7s7p13pzvn_qr0000gn/T//ccdQxqBE.s 			page 12


 123              		.file 11 "../../DaisySP//Source/Synthesis/oscillator.h"
   1:../../DaisySP//Source/Synthesis/oscillator.h **** #pragma once
   2:../../DaisySP//Source/Synthesis/oscillator.h **** #ifndef DSY_OSCILLATOR_H
   3:../../DaisySP//Source/Synthesis/oscillator.h **** #define DSY_OSCILLATOR_H
   4:../../DaisySP//Source/Synthesis/oscillator.h **** #include <stdint.h>
   5:../../DaisySP//Source/Synthesis/oscillator.h **** #include "Utility/dsp.h"
   6:../../DaisySP//Source/Synthesis/oscillator.h **** #ifdef __cplusplus
   7:../../DaisySP//Source/Synthesis/oscillator.h **** 
   8:../../DaisySP//Source/Synthesis/oscillator.h **** namespace daisysp
   9:../../DaisySP//Source/Synthesis/oscillator.h **** {
  10:../../DaisySP//Source/Synthesis/oscillator.h **** /** Synthesis of several waveforms, including polyBLEP bandlimited waveforms.
  11:../../DaisySP//Source/Synthesis/oscillator.h **** */
  12:../../DaisySP//Source/Synthesis/oscillator.h **** class Oscillator
  13:../../DaisySP//Source/Synthesis/oscillator.h **** {
  14:../../DaisySP//Source/Synthesis/oscillator.h ****   public:
  15:../../DaisySP//Source/Synthesis/oscillator.h ****     Oscillator() {}
  16:../../DaisySP//Source/Synthesis/oscillator.h ****     ~Oscillator() {}
 124              		.loc 11 16 5 is_stmt 1 view -0
 125              		.cfi_startproc
 126              		@ args = 0, pretend = 0, frame = 0
 127              		@ frame_needed = 0, uses_anonymous_args = 0
 128              		@ link register save eliminated.
 129              		.loc 11 16 20 is_stmt 0 view .LVU19
 130 0000 7047     		bx	lr
 131              		.cfi_endproc
 132              	.LFE4230:
 134              		.weak	_ZN7daisysp10OscillatorD1Ev
 135              		.thumb_set _ZN7daisysp10OscillatorD1Ev,_ZN7daisysp10OscillatorD2Ev
 136 0002 00BF     		.section	.text._ZN7daisysp8BitcrushD2Ev,"axG",%progbits,_ZN7daisysp8BitcrushD5Ev,comdat
 137              		.align	1
 138              		.p2align 2,,3
 139              		.weak	_ZN7daisysp8BitcrushD2Ev
 140              		.syntax unified
 141              		.thumb
 142              		.thumb_func
 144              	_ZN7daisysp8BitcrushD2Ev:
 145              	.LVL3:
 146              	.LFB4379:
 147              		.file 12 "../../DaisySP//Source/Effects/bitcrush.h"
   1:../../DaisySP//Source/Effects/bitcrush.h **** #pragma once
   2:../../DaisySP//Source/Effects/bitcrush.h **** #ifndef DSY_BITCRUSH_H
   3:../../DaisySP//Source/Effects/bitcrush.h **** #define DSY_BITCRUSH_H
   4:../../DaisySP//Source/Effects/bitcrush.h **** 
   5:../../DaisySP//Source/Effects/bitcrush.h **** #include <stdint.h>
   6:../../DaisySP//Source/Effects/bitcrush.h **** #ifdef __cplusplus
   7:../../DaisySP//Source/Effects/bitcrush.h **** 
   8:../../DaisySP//Source/Effects/bitcrush.h **** namespace daisysp
   9:../../DaisySP//Source/Effects/bitcrush.h **** {
  10:../../DaisySP//Source/Effects/bitcrush.h **** /** bitcrush module
  11:../../DaisySP//Source/Effects/bitcrush.h **** 
  12:../../DaisySP//Source/Effects/bitcrush.h **** Original author(s) : Paul Batchelor, 
  13:../../DaisySP//Source/Effects/bitcrush.h **** 
  14:../../DaisySP//Source/Effects/bitcrush.h **** Ported from soundpipe by Ben Sergentanis, May 2020
  15:../../DaisySP//Source/Effects/bitcrush.h **** */
  16:../../DaisySP//Source/Effects/bitcrush.h **** class Bitcrush
  17:../../DaisySP//Source/Effects/bitcrush.h **** {
  18:../../DaisySP//Source/Effects/bitcrush.h ****   public:
ARM GAS  /var/folders/nm/rdtk7lzx1rb7s7p13pzvn_qr0000gn/T//ccdQxqBE.s 			page 13


  19:../../DaisySP//Source/Effects/bitcrush.h ****     Bitcrush() {}
  20:../../DaisySP//Source/Effects/bitcrush.h ****     ~Bitcrush() {}
 148              		.loc 12 20 5 is_stmt 1 view -0
 149              		.cfi_startproc
 150              		@ args = 0, pretend = 0, frame = 0
 151              		@ frame_needed = 0, uses_anonymous_args = 0
 152              		@ link register save eliminated.
 153              		.loc 12 20 18 is_stmt 0 view .LVU21
 154 0000 7047     		bx	lr
 155              		.cfi_endproc
 156              	.LFE4379:
 158              		.weak	_ZN7daisysp8BitcrushD1Ev
 159              		.thumb_set _ZN7daisysp8BitcrushD1Ev,_ZN7daisysp8BitcrushD2Ev
 160 0002 00BF     		.section	.text._ZN7daisysp9OverdriveD2Ev,"axG",%progbits,_ZN7daisysp9OverdriveD5Ev,comdat
 161              		.align	1
 162              		.p2align 2,,3
 163              		.weak	_ZN7daisysp9OverdriveD2Ev
 164              		.syntax unified
 165              		.thumb
 166              		.thumb_func
 168              	_ZN7daisysp9OverdriveD2Ev:
 169              	.LVL4:
 170              	.LFB4428:
 171              		.file 13 "../../DaisySP//Source/Effects/overdrive.h"
   1:../../DaisySP//Source/Effects/overdrive.h **** #pragma once
   2:../../DaisySP//Source/Effects/overdrive.h **** #ifndef DSY_OVERDRIVE_H
   3:../../DaisySP//Source/Effects/overdrive.h **** #define DSY_OVERDRIVE_H
   4:../../DaisySP//Source/Effects/overdrive.h **** 
   5:../../DaisySP//Source/Effects/overdrive.h **** #include <stdint.h>
   6:../../DaisySP//Source/Effects/overdrive.h **** #ifdef __cplusplus
   7:../../DaisySP//Source/Effects/overdrive.h **** 
   8:../../DaisySP//Source/Effects/overdrive.h **** /** @file overdrive.h */
   9:../../DaisySP//Source/Effects/overdrive.h **** 
  10:../../DaisySP//Source/Effects/overdrive.h **** namespace daisysp
  11:../../DaisySP//Source/Effects/overdrive.h **** {
  12:../../DaisySP//Source/Effects/overdrive.h **** /**  
  13:../../DaisySP//Source/Effects/overdrive.h ****        @brief Distortion / Overdrive Module
  14:../../DaisySP//Source/Effects/overdrive.h ****        @author Ported by Ben Sergentanis 
  15:../../DaisySP//Source/Effects/overdrive.h ****        @date Jan 2021 
  16:../../DaisySP//Source/Effects/overdrive.h ****        Ported from pichenettes/eurorack/plaits/dsp/fx/overdrive.h \n
  17:../../DaisySP//Source/Effects/overdrive.h ****        to an independent module. \n
  18:../../DaisySP//Source/Effects/overdrive.h ****        Original code written by Emilie Gillet in 2014. \n
  19:../../DaisySP//Source/Effects/overdrive.h **** */
  20:../../DaisySP//Source/Effects/overdrive.h **** class Overdrive
  21:../../DaisySP//Source/Effects/overdrive.h **** {
  22:../../DaisySP//Source/Effects/overdrive.h ****   public:
  23:../../DaisySP//Source/Effects/overdrive.h ****     Overdrive() {}
  24:../../DaisySP//Source/Effects/overdrive.h ****     ~Overdrive() {}
 172              		.loc 13 24 5 is_stmt 1 view -0
 173              		.cfi_startproc
 174              		@ args = 0, pretend = 0, frame = 0
 175              		@ frame_needed = 0, uses_anonymous_args = 0
 176              		@ link register save eliminated.
 177              		.loc 13 24 19 is_stmt 0 view .LVU23
 178 0000 7047     		bx	lr
 179              		.cfi_endproc
 180              	.LFE4428:
ARM GAS  /var/folders/nm/rdtk7lzx1rb7s7p13pzvn_qr0000gn/T//ccdQxqBE.s 			page 14


 182              		.weak	_ZN7daisysp9OverdriveD1Ev
 183              		.thumb_set _ZN7daisysp9OverdriveD1Ev,_ZN7daisysp9OverdriveD2Ev
 184 0002 00BF     		.section	.text._ZN7daisysp10MoogLadderD2Ev,"axG",%progbits,_ZN7daisysp10MoogLadderD5Ev,comdat
 185              		.align	1
 186              		.p2align 2,,3
 187              		.weak	_ZN7daisysp10MoogLadderD2Ev
 188              		.syntax unified
 189              		.thumb
 190              		.thumb_func
 192              	_ZN7daisysp10MoogLadderD2Ev:
 193              	.LVL5:
 194              	.LFB4533:
 195              		.file 14 "../../DaisySP//Source/Filters/moogladder.h"
   1:../../DaisySP//Source/Filters/moogladder.h **** #pragma once
   2:../../DaisySP//Source/Filters/moogladder.h **** #ifndef DSY_MOOGLADDER_H
   3:../../DaisySP//Source/Filters/moogladder.h **** #define DSY_MOOGLADDER_H
   4:../../DaisySP//Source/Filters/moogladder.h **** 
   5:../../DaisySP//Source/Filters/moogladder.h **** #include <stdint.h>
   6:../../DaisySP//Source/Filters/moogladder.h **** #ifdef __cplusplus
   7:../../DaisySP//Source/Filters/moogladder.h **** 
   8:../../DaisySP//Source/Filters/moogladder.h **** namespace daisysp
   9:../../DaisySP//Source/Filters/moogladder.h **** {
  10:../../DaisySP//Source/Filters/moogladder.h **** /** Moog ladder filter module
  11:../../DaisySP//Source/Filters/moogladder.h **** 
  12:../../DaisySP//Source/Filters/moogladder.h **** Ported from soundpipe
  13:../../DaisySP//Source/Filters/moogladder.h **** 
  14:../../DaisySP//Source/Filters/moogladder.h **** Original author(s) : Victor Lazzarini, John ffitch (fast tanh), Bob Moog
  15:../../DaisySP//Source/Filters/moogladder.h **** 
  16:../../DaisySP//Source/Filters/moogladder.h **** */
  17:../../DaisySP//Source/Filters/moogladder.h **** class MoogLadder
  18:../../DaisySP//Source/Filters/moogladder.h **** {
  19:../../DaisySP//Source/Filters/moogladder.h ****   public:
  20:../../DaisySP//Source/Filters/moogladder.h ****     MoogLadder() {}
  21:../../DaisySP//Source/Filters/moogladder.h ****     ~MoogLadder() {}
 196              		.loc 14 21 5 is_stmt 1 view -0
 197              		.cfi_startproc
 198              		@ args = 0, pretend = 0, frame = 0
 199              		@ frame_needed = 0, uses_anonymous_args = 0
 200              		@ link register save eliminated.
 201              		.loc 14 21 20 is_stmt 0 view .LVU25
 202 0000 7047     		bx	lr
 203              		.cfi_endproc
 204              	.LFE4533:
 206              		.weak	_ZN7daisysp10MoogLadderD1Ev
 207              		.thumb_set _ZN7daisysp10MoogLadderD1Ev,_ZN7daisysp10MoogLadderD2Ev
 208 0002 00BF     		.section	.text._ZN7daisysp5MetroD2Ev,"axG",%progbits,_ZN7daisysp5MetroD5Ev,comdat
 209              		.align	1
 210              		.p2align 2,,3
 211              		.weak	_ZN7daisysp5MetroD2Ev
 212              		.syntax unified
 213              		.thumb
 214              		.thumb_func
 216              	_ZN7daisysp5MetroD2Ev:
 217              	.LVL6:
 218              	.LFB4771:
 219              		.file 15 "../../DaisySP//Source/Utility/metro.h"
   1:../../DaisySP//Source/Utility/metro.h **** #pragma once
ARM GAS  /var/folders/nm/rdtk7lzx1rb7s7p13pzvn_qr0000gn/T//ccdQxqBE.s 			page 15


   2:../../DaisySP//Source/Utility/metro.h **** #ifndef DSY_METRO_H
   3:../../DaisySP//Source/Utility/metro.h **** #define DSY_METRO_H
   4:../../DaisySP//Source/Utility/metro.h **** #include <stdint.h>
   5:../../DaisySP//Source/Utility/metro.h **** #ifdef __cplusplus
   6:../../DaisySP//Source/Utility/metro.h **** 
   7:../../DaisySP//Source/Utility/metro.h **** namespace daisysp
   8:../../DaisySP//Source/Utility/metro.h **** {
   9:../../DaisySP//Source/Utility/metro.h **** /** Creates a clock signal at a specific frequency.
  10:../../DaisySP//Source/Utility/metro.h **** */
  11:../../DaisySP//Source/Utility/metro.h **** class Metro
  12:../../DaisySP//Source/Utility/metro.h **** {
  13:../../DaisySP//Source/Utility/metro.h ****   public:
  14:../../DaisySP//Source/Utility/metro.h ****     Metro() {}
  15:../../DaisySP//Source/Utility/metro.h ****     ~Metro() {}
 220              		.loc 15 15 5 is_stmt 1 view -0
 221              		.cfi_startproc
 222              		@ args = 0, pretend = 0, frame = 0
 223              		@ frame_needed = 0, uses_anonymous_args = 0
 224              		@ link register save eliminated.
 225              		.loc 15 15 15 is_stmt 0 view .LVU27
 226 0000 7047     		bx	lr
 227              		.cfi_endproc
 228              	.LFE4771:
 230              		.weak	_ZN7daisysp5MetroD1Ev
 231              		.thumb_set _ZN7daisysp5MetroD1Ev,_ZN7daisysp5MetroD2Ev
 232 0002 00BF     		.section	.text._ZN7daisysp7FlangerD2Ev,"axG",%progbits,_ZN7daisysp7FlangerD5Ev,comdat
 233              		.align	1
 234              		.p2align 2,,3
 235              		.weak	_ZN7daisysp7FlangerD2Ev
 236              		.syntax unified
 237              		.thumb
 238              		.thumb_func
 240              	_ZN7daisysp7FlangerD2Ev:
 241              	.LVL7:
 242              	.LFB5395:
 243              		.file 16 "../../DaisySP//Source/Effects/flanger.h"
   1:../../DaisySP//Source/Effects/flanger.h **** #pragma once
   2:../../DaisySP//Source/Effects/flanger.h **** #ifndef DSY_FLANGER_H
   3:../../DaisySP//Source/Effects/flanger.h **** #define DSY_FLANGER_H
   4:../../DaisySP//Source/Effects/flanger.h **** #ifdef __cplusplus
   5:../../DaisySP//Source/Effects/flanger.h **** 
   6:../../DaisySP//Source/Effects/flanger.h **** #include <stdint.h>
   7:../../DaisySP//Source/Effects/flanger.h **** #include "Utility/delayline.h"
   8:../../DaisySP//Source/Effects/flanger.h **** 
   9:../../DaisySP//Source/Effects/flanger.h **** /** @file flanger.h */
  10:../../DaisySP//Source/Effects/flanger.h **** 
  11:../../DaisySP//Source/Effects/flanger.h **** namespace daisysp
  12:../../DaisySP//Source/Effects/flanger.h **** {
  13:../../DaisySP//Source/Effects/flanger.h **** /** @brief Flanging Audio Effect 
  14:../../DaisySP//Source/Effects/flanger.h ****  *
  15:../../DaisySP//Source/Effects/flanger.h ****  * Generates a modulating phase shifted copy of a signal, and recombines
  16:../../DaisySP//Source/Effects/flanger.h ****  * with the original to create a 'flanging' sound effect.
  17:../../DaisySP//Source/Effects/flanger.h ****  */
  18:../../DaisySP//Source/Effects/flanger.h **** class Flanger
 244              		.loc 16 18 7 is_stmt 1 view -0
 245              		.cfi_startproc
 246              		@ args = 0, pretend = 0, frame = 0
ARM GAS  /var/folders/nm/rdtk7lzx1rb7s7p13pzvn_qr0000gn/T//ccdQxqBE.s 			page 16


 247              		@ frame_needed = 0, uses_anonymous_args = 0
 248              		@ link register save eliminated.
 249              	.LBB352:
 250              	.LBI352:
 251              		.file 17 "../../DaisySP//Source/Utility/delayline.h"
   1:../../DaisySP//Source/Utility/delayline.h **** #pragma once
   2:../../DaisySP//Source/Utility/delayline.h **** #ifndef DSY_DELAY_H
   3:../../DaisySP//Source/Utility/delayline.h **** #define DSY_DELAY_H
   4:../../DaisySP//Source/Utility/delayline.h **** #include <stdlib.h>
   5:../../DaisySP//Source/Utility/delayline.h **** #include <stdint.h>
   6:../../DaisySP//Source/Utility/delayline.h **** namespace daisysp
   7:../../DaisySP//Source/Utility/delayline.h **** {
   8:../../DaisySP//Source/Utility/delayline.h **** /** Simple Delay line.
   9:../../DaisySP//Source/Utility/delayline.h **** November 2019
  10:../../DaisySP//Source/Utility/delayline.h **** 
  11:../../DaisySP//Source/Utility/delayline.h **** Converted to Template December 2019
  12:../../DaisySP//Source/Utility/delayline.h **** 
  13:../../DaisySP//Source/Utility/delayline.h **** declaration example: (1 second of floats)
  14:../../DaisySP//Source/Utility/delayline.h **** 
  15:../../DaisySP//Source/Utility/delayline.h **** DelayLine<float, SAMPLE_RATE> del;
  16:../../DaisySP//Source/Utility/delayline.h **** 
  17:../../DaisySP//Source/Utility/delayline.h **** By: shensley
  18:../../DaisySP//Source/Utility/delayline.h **** */
  19:../../DaisySP//Source/Utility/delayline.h **** template <typename T, size_t max_size>
  20:../../DaisySP//Source/Utility/delayline.h **** class DelayLine
  21:../../DaisySP//Source/Utility/delayline.h **** {
  22:../../DaisySP//Source/Utility/delayline.h ****   public:
  23:../../DaisySP//Source/Utility/delayline.h ****     DelayLine() {}
  24:../../DaisySP//Source/Utility/delayline.h ****     ~DelayLine() {}
 252              		.loc 17 24 5 view .LVU29
 253              		.loc 17 24 5 is_stmt 0 view .LVU30
 254              	.LBE352:
 255              		.loc 16 18 7 view .LVU31
 256 0000 7047     		bx	lr
 257              		.cfi_endproc
 258              	.LFE5395:
 260              		.weak	_ZN7daisysp7FlangerD1Ev
 261              		.thumb_set _ZN7daisysp7FlangerD1Ev,_ZN7daisysp7FlangerD2Ev
 262 0002 00BF     		.section	.text._ZN7daisysp9DelayLineIfLj36000EED2Ev,"axG",%progbits,_ZN7daisysp9DelayLineIfLj36000
 263              		.align	1
 264              		.p2align 2,,3
 265              		.weak	_ZN7daisysp9DelayLineIfLj36000EED2Ev
 266              		.syntax unified
 267              		.thumb
 268              		.thumb_func
 270              	_ZN7daisysp9DelayLineIfLj36000EED2Ev:
 271              	.LVL8:
 272              	.LFB5398:
 273              		.loc 17 24 5 is_stmt 1 view -0
 274              		.cfi_startproc
 275              		@ args = 0, pretend = 0, frame = 0
 276              		@ frame_needed = 0, uses_anonymous_args = 0
 277              		@ link register save eliminated.
 278              		.loc 17 24 19 is_stmt 0 view .LVU33
 279 0000 7047     		bx	lr
 280              		.cfi_endproc
 281              	.LFE5398:
ARM GAS  /var/folders/nm/rdtk7lzx1rb7s7p13pzvn_qr0000gn/T//ccdQxqBE.s 			page 17


 283              		.weak	_ZN7daisysp9DelayLineIfLj36000EED1Ev
 284              		.thumb_set _ZN7daisysp9DelayLineIfLj36000EED1Ev,_ZN7daisysp9DelayLineIfLj36000EED2Ev
 285 0002 00BF     		.section	.text._ZN7daisysp16DelayLineReverseIfLj36000EED2Ev,"axG",%progbits,_ZN7daisysp16DelayLine
 286              		.align	1
 287              		.p2align 2,,3
 288              		.weak	_ZN7daisysp16DelayLineReverseIfLj36000EED2Ev
 289              		.syntax unified
 290              		.thumb
 291              		.thumb_func
 293              	_ZN7daisysp16DelayLineReverseIfLj36000EED2Ev:
 294              	.LVL9:
 295              	.LFB5401:
 296              		.file 18 "delayline_reverse.h"
   1:delayline_reverse.h **** // Copyright 2021 Adam Fulford
   2:delayline_reverse.h **** // 
   3:delayline_reverse.h **** // Permission is hereby granted, free of charge, to any person obtaining a copy
   4:delayline_reverse.h **** // of this software and associated documentation files (the "Software"), to deal
   5:delayline_reverse.h **** // in the Software without restriction, including without limitation the rights
   6:delayline_reverse.h **** // to use, copy, modify, merge, publish, distribute, sublicense, and/or sell
   7:delayline_reverse.h **** // copies of the Software, and to permit persons to whom the Software is
   8:delayline_reverse.h **** // furnished to do so, subject to the following conditions:
   9:delayline_reverse.h **** // 
  10:delayline_reverse.h **** // The above copyright notice and this permission notice shall be included in
  11:delayline_reverse.h **** // all copies or substantial portions of the Software.
  12:delayline_reverse.h **** // 
  13:delayline_reverse.h **** // THE SOFTWARE IS PROVIDED "AS IS", WITHOUT WARRANTY OF ANY KIND, EXPRESS OR
  14:delayline_reverse.h **** // IMPLIED, INCLUDING BUT NOT LIMITED TO THE WARRANTIES OF MERCHANTABILITY,
  15:delayline_reverse.h **** // FITNESS FOR A PARTICULAR PURPOSE AND NONINFRINGEMENT. IN NO EVENT SHALL THE
  16:delayline_reverse.h **** // AUTHORS OR COPYRIGHT HOLDERS BE LIABLE FOR ANY CLAIM, DAMAGES OR OTHER
  17:delayline_reverse.h **** // LIABILITY, WHETHER IN AN ACTION OF CONTRACT, TORT OR OTHERWISE, ARISING FROM,
  18:delayline_reverse.h **** // OUT OF OR IN CONNECTION WITH THE SOFTWARE OR THE USE OR OTHER DEALINGS IN
  19:delayline_reverse.h **** // THE SOFTWARE.
  20:delayline_reverse.h **** // 
  21:delayline_reverse.h **** // See http://creativecommons.org/licenses/MIT/ for more information.
  22:delayline_reverse.h **** 
  23:delayline_reverse.h **** #pragma once
  24:delayline_reverse.h **** #ifndef DSY_DELAY_REVERSE_H
  25:delayline_reverse.h **** #define DSY_DELAY_REVERSE_H
  26:delayline_reverse.h **** #include <stdlib.h>
  27:delayline_reverse.h **** #include <stdint.h>
  28:delayline_reverse.h **** #include <math.h>
  29:delayline_reverse.h **** namespace daisysp
  30:delayline_reverse.h **** {
  31:delayline_reverse.h **** /** Reverse Delay line
  32:delayline_reverse.h **** By: Adam Fulford
  33:delayline_reverse.h **** */
  34:delayline_reverse.h **** template <typename T, size_t max_size>
  35:delayline_reverse.h **** class DelayLineReverse
  36:delayline_reverse.h **** {
  37:delayline_reverse.h ****   public:
  38:delayline_reverse.h ****     DelayLineReverse() {}
  39:delayline_reverse.h ****     ~DelayLineReverse() {}
 297              		.loc 18 39 5 is_stmt 1 view -0
 298              		.cfi_startproc
 299              		@ args = 0, pretend = 0, frame = 0
 300              		@ frame_needed = 0, uses_anonymous_args = 0
 301              		@ link register save eliminated.
ARM GAS  /var/folders/nm/rdtk7lzx1rb7s7p13pzvn_qr0000gn/T//ccdQxqBE.s 			page 18


 302              		.loc 18 39 26 is_stmt 0 view .LVU35
 303 0000 7047     		bx	lr
 304              		.cfi_endproc
 305              	.LFE5401:
 307              		.weak	_ZN7daisysp16DelayLineReverseIfLj36000EED1Ev
 308              		.thumb_set _ZN7daisysp16DelayLineReverseIfLj36000EED1Ev,_ZN7daisysp16DelayLineReverseIfLj36000EED2
 309 0002 00BF     		.section	.text._Z20ConditionalParameterRffS_,"ax",%progbits
 310              		.align	1
 311              		.p2align 2,,3
 312              		.global	_Z20ConditionalParameterRffS_
 313              		.syntax unified
 314              		.thumb
 315              		.thumb_func
 317              	_Z20ConditionalParameterRffS_:
 318              	.LVL10:
 319              	.LFB4812:
 320              		.file 19 "TerrariumMultiEffect.cpp"
   1:TerrariumMultiEffect.cpp **** #include "daisy_petal.h"
   2:TerrariumMultiEffect.cpp **** #include "daisysp.h"
   3:TerrariumMultiEffect.cpp **** #include "delayline_reverse.h"
   4:TerrariumMultiEffect.cpp **** #include "terrarium.h"
   5:TerrariumMultiEffect.cpp **** 
   6:TerrariumMultiEffect.cpp **** using namespace terrarium;
   7:TerrariumMultiEffect.cpp **** using namespace daisy;
   8:TerrariumMultiEffect.cpp **** using namespace daisysp;
   9:TerrariumMultiEffect.cpp **** 
  10:TerrariumMultiEffect.cpp **** DaisyPetal hw;
  11:TerrariumMultiEffect.cpp **** 
  12:TerrariumMultiEffect.cpp **** Led led1, led2;
  13:TerrariumMultiEffect.cpp **** 
  14:TerrariumMultiEffect.cpp **** // ---------------------------- CONSTANTS ----------------------------------
  15:TerrariumMultiEffect.cpp **** 
  16:TerrariumMultiEffect.cpp **** #define kPreGain 1
  17:TerrariumMultiEffect.cpp **** #define kSampleRate 48000
  18:TerrariumMultiEffect.cpp **** 
  19:TerrariumMultiEffect.cpp **** 
  20:TerrariumMultiEffect.cpp **** // -------------------------- FUNCTION DECS -------------------------------
  21:TerrariumMultiEffect.cpp **** 
  22:TerrariumMultiEffect.cpp **** float ScaleNum(float num, float newMin, float newMax);
  23:TerrariumMultiEffect.cpp **** void ConditionalParameter(float  &oldVal, float  newVal, float &param);
  24:TerrariumMultiEffect.cpp **** void InitializeADC();
  25:TerrariumMultiEffect.cpp **** 
  26:TerrariumMultiEffect.cpp **** // ----------------------------- ENUMS ------------------------------------
  27:TerrariumMultiEffect.cpp **** 
  28:TerrariumMultiEffect.cpp **** enum EffectsChannels {
  29:TerrariumMultiEffect.cpp **** 	delayMode,
  30:TerrariumMultiEffect.cpp **** 	flangerMode,
  31:TerrariumMultiEffect.cpp **** 	crushMode
  32:TerrariumMultiEffect.cpp **** };
  33:TerrariumMultiEffect.cpp **** 
  34:TerrariumMultiEffect.cpp **** // -------------  Global variables to chage later on -----------------
  35:TerrariumMultiEffect.cpp **** 
  36:TerrariumMultiEffect.cpp **** // misc variables
  37:TerrariumMultiEffect.cpp **** bool bypass = false;
  38:TerrariumMultiEffect.cpp **** EffectsChannels effect = delayMode;
  39:TerrariumMultiEffect.cpp **** 
  40:TerrariumMultiEffect.cpp **** // knob variables to be stored
ARM GAS  /var/folders/nm/rdtk7lzx1rb7s7p13pzvn_qr0000gn/T//ccdQxqBE.s 			page 19


  41:TerrariumMultiEffect.cpp **** float k1 = 0;
  42:TerrariumMultiEffect.cpp **** float k2 = 0;
  43:TerrariumMultiEffect.cpp **** float k3 = 0; 
  44:TerrariumMultiEffect.cpp **** float k4 = 0;
  45:TerrariumMultiEffect.cpp **** float k5 = 0;
  46:TerrariumMultiEffect.cpp **** 
  47:TerrariumMultiEffect.cpp **** 
  48:TerrariumMultiEffect.cpp **** // delay variables
  49:TerrariumMultiEffect.cpp **** float gDelayTime, gCurrentDelayTime = 1.0f; 
  50:TerrariumMultiEffect.cpp **** float gDelayFeedback = 0.3f;
  51:TerrariumMultiEffect.cpp **** float gDelayDryWet = 0.5f;
  52:TerrariumMultiEffect.cpp **** bool revDelay = true;
  53:TerrariumMultiEffect.cpp **** 
  54:TerrariumMultiEffect.cpp **** // distortion variable
  55:TerrariumMultiEffect.cpp **** float gDistortion = 1.0f; // 1 == no distortion
  56:TerrariumMultiEffect.cpp **** 
  57:TerrariumMultiEffect.cpp **** // flanger variables
  58:TerrariumMultiEffect.cpp **** float gFlangerDepth = 0.5f;
  59:TerrariumMultiEffect.cpp **** float gFlangerFreq = 0.33f;
  60:TerrariumMultiEffect.cpp **** float gFlangerFeedback = 0.83f;
  61:TerrariumMultiEffect.cpp **** float gFlangerDryWet = 0.0f;
  62:TerrariumMultiEffect.cpp **** 
  63:TerrariumMultiEffect.cpp **** // bitcrusher variables
  64:TerrariumMultiEffect.cpp **** float gCrushBitDepth = 1;
  65:TerrariumMultiEffect.cpp **** float gCrushBitRate = 1;
  66:TerrariumMultiEffect.cpp **** float gCrushDryWet = 0.0f;
  67:TerrariumMultiEffect.cpp **** 
  68:TerrariumMultiEffect.cpp **** // filter variables
  69:TerrariumMultiEffect.cpp **** float gFilterFreq = 10000.0f;
  70:TerrariumMultiEffect.cpp **** 
  71:TerrariumMultiEffect.cpp **** // gain variables
  72:TerrariumMultiEffect.cpp **** float gPostGain = 1.0f;
  73:TerrariumMultiEffect.cpp **** 
  74:TerrariumMultiEffect.cpp **** // -------------------- defining delay lines & chorus ------------------------
  75:TerrariumMultiEffect.cpp **** 
  76:TerrariumMultiEffect.cpp **** #define MAX_DELAY static_cast<size_t>(48000 * 0.75f)
  77:TerrariumMultiEffect.cpp **** static DelayLine<float, MAX_DELAY> del;
  78:TerrariumMultiEffect.cpp **** static DelayLineReverse<float, MAX_DELAY> delRev;
  79:TerrariumMultiEffect.cpp **** 
  80:TerrariumMultiEffect.cpp **** Flanger flanger;
  81:TerrariumMultiEffect.cpp **** Bitcrush crush;
  82:TerrariumMultiEffect.cpp **** MoogLadder filt;
  83:TerrariumMultiEffect.cpp **** Overdrive drive;
  84:TerrariumMultiEffect.cpp **** Metro met;
  85:TerrariumMultiEffect.cpp **** Oscillator lfo;
  86:TerrariumMultiEffect.cpp **** 
  87:TerrariumMultiEffect.cpp **** 
  88:TerrariumMultiEffect.cpp **** // --------------------------------------------------------------------
  89:TerrariumMultiEffect.cpp **** 
  90:TerrariumMultiEffect.cpp **** void ConditionalParameter(float  &oldVal, float  newVal, float &param)
  91:TerrariumMultiEffect.cpp **** {
 321              		.loc 19 91 1 is_stmt 1 view -0
 322              		.cfi_startproc
 323              		@ args = 0, pretend = 0, frame = 0
 324              		@ frame_needed = 0, uses_anonymous_args = 0
 325              		@ link register save eliminated.
  92:TerrariumMultiEffect.cpp ****     if(abs(oldVal - newVal) > 0.005f)
ARM GAS  /var/folders/nm/rdtk7lzx1rb7s7p13pzvn_qr0000gn/T//ccdQxqBE.s 			page 20


 326              		.loc 19 92 5 view .LVU37
 327              		.loc 19 92 11 is_stmt 0 view .LVU38
 328 0000 D0ED007A 		vldr.32	s15, [r0]
 329              		.loc 19 92 5 view .LVU39
 330 0004 9FED077A 		vldr.32	s14, .L16
 331              	.LVL11:
 332              	.LBB353:
 333              	.LBI353:
 334              		.file 20 "/Applications/ARM/arm-none-eabi/include/c++/10.3.1/bits/std_abs.h"
   1:/Applications/ARM/arm-none-eabi/include/c++/10.3.1/bits/std_abs.h **** // -*- C++ -*- C library enhancements header.
   2:/Applications/ARM/arm-none-eabi/include/c++/10.3.1/bits/std_abs.h **** 
   3:/Applications/ARM/arm-none-eabi/include/c++/10.3.1/bits/std_abs.h **** // Copyright (C) 2016-2020 Free Software Foundation, Inc.
   4:/Applications/ARM/arm-none-eabi/include/c++/10.3.1/bits/std_abs.h **** //
   5:/Applications/ARM/arm-none-eabi/include/c++/10.3.1/bits/std_abs.h **** // This file is part of the GNU ISO C++ Library.  This library is free
   6:/Applications/ARM/arm-none-eabi/include/c++/10.3.1/bits/std_abs.h **** // software; you can redistribute it and/or modify it under the
   7:/Applications/ARM/arm-none-eabi/include/c++/10.3.1/bits/std_abs.h **** // terms of the GNU General Public License as published by the
   8:/Applications/ARM/arm-none-eabi/include/c++/10.3.1/bits/std_abs.h **** // Free Software Foundation; either version 3, or (at your option)
   9:/Applications/ARM/arm-none-eabi/include/c++/10.3.1/bits/std_abs.h **** // any later version.
  10:/Applications/ARM/arm-none-eabi/include/c++/10.3.1/bits/std_abs.h **** 
  11:/Applications/ARM/arm-none-eabi/include/c++/10.3.1/bits/std_abs.h **** // This library is distributed in the hope that it will be useful,
  12:/Applications/ARM/arm-none-eabi/include/c++/10.3.1/bits/std_abs.h **** // but WITHOUT ANY WARRANTY; without even the implied warranty of
  13:/Applications/ARM/arm-none-eabi/include/c++/10.3.1/bits/std_abs.h **** // MERCHANTABILITY or FITNESS FOR A PARTICULAR PURPOSE.  See the
  14:/Applications/ARM/arm-none-eabi/include/c++/10.3.1/bits/std_abs.h **** // GNU General Public License for more details.
  15:/Applications/ARM/arm-none-eabi/include/c++/10.3.1/bits/std_abs.h **** 
  16:/Applications/ARM/arm-none-eabi/include/c++/10.3.1/bits/std_abs.h **** // Under Section 7 of GPL version 3, you are granted additional
  17:/Applications/ARM/arm-none-eabi/include/c++/10.3.1/bits/std_abs.h **** // permissions described in the GCC Runtime Library Exception, version
  18:/Applications/ARM/arm-none-eabi/include/c++/10.3.1/bits/std_abs.h **** // 3.1, as published by the Free Software Foundation.
  19:/Applications/ARM/arm-none-eabi/include/c++/10.3.1/bits/std_abs.h **** 
  20:/Applications/ARM/arm-none-eabi/include/c++/10.3.1/bits/std_abs.h **** // You should have received a copy of the GNU General Public License and
  21:/Applications/ARM/arm-none-eabi/include/c++/10.3.1/bits/std_abs.h **** // a copy of the GCC Runtime Library Exception along with this program;
  22:/Applications/ARM/arm-none-eabi/include/c++/10.3.1/bits/std_abs.h **** // see the files COPYING3 and COPYING.RUNTIME respectively.  If not, see
  23:/Applications/ARM/arm-none-eabi/include/c++/10.3.1/bits/std_abs.h **** // <http://www.gnu.org/licenses/>.
  24:/Applications/ARM/arm-none-eabi/include/c++/10.3.1/bits/std_abs.h **** 
  25:/Applications/ARM/arm-none-eabi/include/c++/10.3.1/bits/std_abs.h **** /** @file include/bits/std_abs.h
  26:/Applications/ARM/arm-none-eabi/include/c++/10.3.1/bits/std_abs.h ****  *  This is an internal header file, included by other library headers.
  27:/Applications/ARM/arm-none-eabi/include/c++/10.3.1/bits/std_abs.h ****  *  Do not attempt to use it directly. @headername{cmath, cstdlib}
  28:/Applications/ARM/arm-none-eabi/include/c++/10.3.1/bits/std_abs.h ****  */
  29:/Applications/ARM/arm-none-eabi/include/c++/10.3.1/bits/std_abs.h **** 
  30:/Applications/ARM/arm-none-eabi/include/c++/10.3.1/bits/std_abs.h **** #ifndef _GLIBCXX_BITS_STD_ABS_H
  31:/Applications/ARM/arm-none-eabi/include/c++/10.3.1/bits/std_abs.h **** #define _GLIBCXX_BITS_STD_ABS_H
  32:/Applications/ARM/arm-none-eabi/include/c++/10.3.1/bits/std_abs.h **** 
  33:/Applications/ARM/arm-none-eabi/include/c++/10.3.1/bits/std_abs.h **** #pragma GCC system_header
  34:/Applications/ARM/arm-none-eabi/include/c++/10.3.1/bits/std_abs.h **** 
  35:/Applications/ARM/arm-none-eabi/include/c++/10.3.1/bits/std_abs.h **** #include <bits/c++config.h>
  36:/Applications/ARM/arm-none-eabi/include/c++/10.3.1/bits/std_abs.h **** 
  37:/Applications/ARM/arm-none-eabi/include/c++/10.3.1/bits/std_abs.h **** #define _GLIBCXX_INCLUDE_NEXT_C_HEADERS
  38:/Applications/ARM/arm-none-eabi/include/c++/10.3.1/bits/std_abs.h **** #include_next <stdlib.h>
  39:/Applications/ARM/arm-none-eabi/include/c++/10.3.1/bits/std_abs.h **** #ifdef __CORRECT_ISO_CPP_MATH_H_PROTO
  40:/Applications/ARM/arm-none-eabi/include/c++/10.3.1/bits/std_abs.h **** # include_next <math.h>
  41:/Applications/ARM/arm-none-eabi/include/c++/10.3.1/bits/std_abs.h **** #endif
  42:/Applications/ARM/arm-none-eabi/include/c++/10.3.1/bits/std_abs.h **** #undef _GLIBCXX_INCLUDE_NEXT_C_HEADERS
  43:/Applications/ARM/arm-none-eabi/include/c++/10.3.1/bits/std_abs.h **** 
  44:/Applications/ARM/arm-none-eabi/include/c++/10.3.1/bits/std_abs.h **** #undef abs
  45:/Applications/ARM/arm-none-eabi/include/c++/10.3.1/bits/std_abs.h **** 
  46:/Applications/ARM/arm-none-eabi/include/c++/10.3.1/bits/std_abs.h **** extern "C++"
  47:/Applications/ARM/arm-none-eabi/include/c++/10.3.1/bits/std_abs.h **** {
  48:/Applications/ARM/arm-none-eabi/include/c++/10.3.1/bits/std_abs.h **** namespace std _GLIBCXX_VISIBILITY(default)
ARM GAS  /var/folders/nm/rdtk7lzx1rb7s7p13pzvn_qr0000gn/T//ccdQxqBE.s 			page 21


  49:/Applications/ARM/arm-none-eabi/include/c++/10.3.1/bits/std_abs.h **** {
  50:/Applications/ARM/arm-none-eabi/include/c++/10.3.1/bits/std_abs.h **** _GLIBCXX_BEGIN_NAMESPACE_VERSION
  51:/Applications/ARM/arm-none-eabi/include/c++/10.3.1/bits/std_abs.h **** 
  52:/Applications/ARM/arm-none-eabi/include/c++/10.3.1/bits/std_abs.h ****   using ::abs;
  53:/Applications/ARM/arm-none-eabi/include/c++/10.3.1/bits/std_abs.h **** 
  54:/Applications/ARM/arm-none-eabi/include/c++/10.3.1/bits/std_abs.h **** #ifndef __CORRECT_ISO_CPP_STDLIB_H_PROTO
  55:/Applications/ARM/arm-none-eabi/include/c++/10.3.1/bits/std_abs.h ****   inline long
  56:/Applications/ARM/arm-none-eabi/include/c++/10.3.1/bits/std_abs.h ****   abs(long __i) { return __builtin_labs(__i); }
  57:/Applications/ARM/arm-none-eabi/include/c++/10.3.1/bits/std_abs.h **** #endif
  58:/Applications/ARM/arm-none-eabi/include/c++/10.3.1/bits/std_abs.h **** 
  59:/Applications/ARM/arm-none-eabi/include/c++/10.3.1/bits/std_abs.h **** #ifdef _GLIBCXX_USE_LONG_LONG
  60:/Applications/ARM/arm-none-eabi/include/c++/10.3.1/bits/std_abs.h ****   inline long long
  61:/Applications/ARM/arm-none-eabi/include/c++/10.3.1/bits/std_abs.h ****   abs(long long __x) { return __builtin_llabs (__x); }
  62:/Applications/ARM/arm-none-eabi/include/c++/10.3.1/bits/std_abs.h **** #endif
  63:/Applications/ARM/arm-none-eabi/include/c++/10.3.1/bits/std_abs.h **** 
  64:/Applications/ARM/arm-none-eabi/include/c++/10.3.1/bits/std_abs.h **** // _GLIBCXX_RESOLVE_LIB_DEFECTS
  65:/Applications/ARM/arm-none-eabi/include/c++/10.3.1/bits/std_abs.h **** // 2192. Validity and return type of std::abs(0u) is unclear
  66:/Applications/ARM/arm-none-eabi/include/c++/10.3.1/bits/std_abs.h **** // 2294. <cstdlib> should declare abs(double)
  67:/Applications/ARM/arm-none-eabi/include/c++/10.3.1/bits/std_abs.h **** // 2735. std::abs(short), std::abs(signed char) and others should return int
  68:/Applications/ARM/arm-none-eabi/include/c++/10.3.1/bits/std_abs.h **** 
  69:/Applications/ARM/arm-none-eabi/include/c++/10.3.1/bits/std_abs.h **** #ifndef __CORRECT_ISO_CPP_MATH_H_PROTO
  70:/Applications/ARM/arm-none-eabi/include/c++/10.3.1/bits/std_abs.h ****   inline _GLIBCXX_CONSTEXPR double
  71:/Applications/ARM/arm-none-eabi/include/c++/10.3.1/bits/std_abs.h ****   abs(double __x)
  72:/Applications/ARM/arm-none-eabi/include/c++/10.3.1/bits/std_abs.h ****   { return __builtin_fabs(__x); }
  73:/Applications/ARM/arm-none-eabi/include/c++/10.3.1/bits/std_abs.h **** 
  74:/Applications/ARM/arm-none-eabi/include/c++/10.3.1/bits/std_abs.h ****   inline _GLIBCXX_CONSTEXPR float
  75:/Applications/ARM/arm-none-eabi/include/c++/10.3.1/bits/std_abs.h ****   abs(float __x)
 335              		.loc 20 75 3 is_stmt 1 view .LVU40
 336              	.LBB354:
  76:/Applications/ARM/arm-none-eabi/include/c++/10.3.1/bits/std_abs.h ****   { return __builtin_fabsf(__x); }
 337              		.loc 20 76 5 view .LVU41
 338              		.loc 20 76 5 is_stmt 0 view .LVU42
 339              	.LBE354:
 340              	.LBE353:
 341              		.loc 19 92 11 view .LVU43
 342 0008 77EEC07A 		vsub.f32	s15, s15, s0
 343              	.LBB356:
 344              	.LBB355:
 345              		.loc 20 76 31 view .LVU44
 346 000c F0EEE77A 		vabs.f32	s15, s15
 347              	.LBE355:
 348              	.LBE356:
 349              		.loc 19 92 5 view .LVU45
 350 0010 F4EEC77A 		vcmpe.f32	s15, s14
 351 0014 F1EE10FA 		vmrs	APSR_nzcv, FPSCR
 352 0018 03DD     		ble	.L12
  93:TerrariumMultiEffect.cpp ****     {
  94:TerrariumMultiEffect.cpp ****         param = newVal;
 353              		.loc 19 94 9 is_stmt 1 view .LVU46
 354              		.loc 19 94 15 is_stmt 0 view .LVU47
 355 001a 81ED000A 		vstr.32	s0, [r1]
  95:TerrariumMultiEffect.cpp **** 		oldVal = newVal;
 356              		.loc 19 95 3 is_stmt 1 view .LVU48
 357              		.loc 19 95 10 is_stmt 0 view .LVU49
 358 001e 80ED000A 		vstr.32	s0, [r0]
 359              	.L12:
  96:TerrariumMultiEffect.cpp ****     }
ARM GAS  /var/folders/nm/rdtk7lzx1rb7s7p13pzvn_qr0000gn/T//ccdQxqBE.s 			page 22


  97:TerrariumMultiEffect.cpp **** }
 360              		.loc 19 97 1 view .LVU50
 361 0022 7047     		bx	lr
 362              	.L17:
 363              		.align	2
 364              	.L16:
 365 0024 0AD7A33B 		.word	1000593162
 366              		.cfi_endproc
 367              	.LFE4812:
 369              		.section	.text._Z8ScaleNumfff,"ax",%progbits
 370              		.align	1
 371              		.p2align 2,,3
 372              		.global	_Z8ScaleNumfff
 373              		.syntax unified
 374              		.thumb
 375              		.thumb_func
 377              	_Z8ScaleNumfff:
 378              	.LVL12:
 379              	.LFB4813:
  98:TerrariumMultiEffect.cpp **** 
  99:TerrariumMultiEffect.cpp **** float ScaleNum(float num, float newMin, float newMax)
 100:TerrariumMultiEffect.cpp **** {
 380              		.loc 19 100 1 is_stmt 1 view -0
 381              		.cfi_startproc
 382              		@ args = 0, pretend = 0, frame = 0
 383              		@ frame_needed = 0, uses_anonymous_args = 0
 384              		@ link register save eliminated.
 101:TerrariumMultiEffect.cpp **** 	float oldMin = 0;
 385              		.loc 19 101 2 view .LVU52
 102:TerrariumMultiEffect.cpp **** 	float oldMax = 1;
 386              		.loc 19 102 2 view .LVU53
 103:TerrariumMultiEffect.cpp **** 
 104:TerrariumMultiEffect.cpp **** 	return (((newMax - newMin) * (num - oldMin) / (oldMax - oldMin)) + newMin);
 387              		.loc 19 104 2 view .LVU54
 388              		.loc 19 104 19 is_stmt 0 view .LVU55
 389 0000 31EE601A 		vsub.f32	s2, s2, s1
 390              	.LVL13:
 105:TerrariumMultiEffect.cpp **** }
 391              		.loc 19 105 1 view .LVU56
 392 0004 E1EE000A 		vfma.f32	s1, s2, s0
 393              	.LVL14:
 394              		.loc 19 105 1 view .LVU57
 395 0008 B0EE600A 		vmov.f32	s0, s1
 396              	.LVL15:
 397              		.loc 19 105 1 view .LVU58
 398 000c 7047     		bx	lr
 399              		.cfi_endproc
 400              	.LFE4813:
 402 000e 00BF     		.section	.text._Z11ProccessADCv,"ax",%progbits
 403              		.align	1
 404              		.p2align 2,,3
 405              		.global	_Z11ProccessADCv
 406              		.syntax unified
 407              		.thumb
 408              		.thumb_func
 410              	_Z11ProccessADCv:
 411              	.LFB4814:
ARM GAS  /var/folders/nm/rdtk7lzx1rb7s7p13pzvn_qr0000gn/T//ccdQxqBE.s 			page 23


 106:TerrariumMultiEffect.cpp **** 
 107:TerrariumMultiEffect.cpp **** void ProccessADC()
 108:TerrariumMultiEffect.cpp **** {
 412              		.loc 19 108 1 is_stmt 1 view -0
 413              		.cfi_startproc
 414              		@ args = 0, pretend = 0, frame = 0
 415              		@ frame_needed = 0, uses_anonymous_args = 0
 109:TerrariumMultiEffect.cpp **** 	// hw.ProcessAllControls();
 110:TerrariumMultiEffect.cpp **** 	gDistortion = hw.knob[Terrarium::KNOB_5].Process();
 416              		.loc 19 110 2 view .LVU60
 108:TerrariumMultiEffect.cpp **** 	// hw.ProcessAllControls();
 417              		.loc 19 108 1 is_stmt 0 view .LVU61
 418 0000 2DE9F047 		push	{r4, r5, r6, r7, r8, r9, r10, lr}
 419              		.cfi_def_cfa_offset 32
 420              		.cfi_offset 4, -32
 421              		.cfi_offset 5, -28
 422              		.cfi_offset 6, -24
 423              		.cfi_offset 7, -20
 424              		.cfi_offset 8, -16
 425              		.cfi_offset 9, -12
 426              		.cfi_offset 10, -8
 427              		.cfi_offset 14, -4
 428              		.loc 19 110 50 view .LVU62
 429 0004 D648     		ldr	r0, .L56
 430              		.loc 19 110 14 view .LVU63
 431 0006 D74C     		ldr	r4, .L56+4
 432              		.loc 19 110 50 view .LVU64
 433 0008 FFF7FEFF 		bl	_ZN5daisy13AnalogControl7ProcessEv
 434              	.LVL16:
 111:TerrariumMultiEffect.cpp **** 	gPostGain = hw.knob[Terrarium::KNOB_4].Process();
 435              		.loc 19 111 48 view .LVU65
 436 000c D648     		ldr	r0, .L56+8
 110:TerrariumMultiEffect.cpp **** 	gPostGain = hw.knob[Terrarium::KNOB_4].Process();
 437              		.loc 19 110 14 view .LVU66
 438 000e 84ED000A 		vstr.32	s0, [r4]
 439              		.loc 19 111 2 is_stmt 1 view .LVU67
 440              		.loc 19 111 48 is_stmt 0 view .LVU68
 441 0012 FFF7FEFF 		bl	_ZN5daisy13AnalogControl7ProcessEv
 442              	.LVL17:
 112:TerrariumMultiEffect.cpp **** 
 113:TerrariumMultiEffect.cpp **** 	switch(effect)
 443              		.loc 19 113 9 view .LVU69
 444 0016 D54B     		ldr	r3, .L56+12
 111:TerrariumMultiEffect.cpp **** 
 445              		.loc 19 111 12 view .LVU70
 446 0018 D54A     		ldr	r2, .L56+16
 447              		.loc 19 113 9 view .LVU71
 448 001a 1B78     		ldrb	r3, [r3]	@ zero_extendqisi2
 111:TerrariumMultiEffect.cpp **** 
 449              		.loc 19 111 12 view .LVU72
 450 001c 82ED000A 		vstr.32	s0, [r2]
 451              		.loc 19 113 2 is_stmt 1 view .LVU73
 452 0020 012B     		cmp	r3, #1
 453 0022 00F08E80 		beq	.L20
 454 0026 022B     		cmp	r3, #2
 455 0028 00F05281 		beq	.L21
 456 002c 002B     		cmp	r3, #0
ARM GAS  /var/folders/nm/rdtk7lzx1rb7s7p13pzvn_qr0000gn/T//ccdQxqBE.s 			page 24


 457 002e 00F0EB80 		beq	.L53
 114:TerrariumMultiEffect.cpp **** 	{
 115:TerrariumMultiEffect.cpp **** 		case delayMode:
 116:TerrariumMultiEffect.cpp **** 			ConditionalParameter(k1, hw.knob[Terrarium::KNOB_1].Process(), gDelayTime); // only maps when po
 117:TerrariumMultiEffect.cpp **** 			ConditionalParameter(k2, hw.knob[Terrarium::KNOB_2].Process(), gDelayFeedback);
 118:TerrariumMultiEffect.cpp **** 			ConditionalParameter(k5, hw.knob[Terrarium::KNOB_6].Process(), gDelayDryWet);
 119:TerrariumMultiEffect.cpp **** 			ConditionalParameter(k3, hw.knob[Terrarium::KNOB_3].Process(), gFilterFreq);
 120:TerrariumMultiEffect.cpp **** 			break;
 121:TerrariumMultiEffect.cpp **** 		case flangerMode:
 122:TerrariumMultiEffect.cpp **** 			ConditionalParameter(k1, hw.knob[Terrarium::KNOB_1].Process(), gFlangerFreq);
 123:TerrariumMultiEffect.cpp **** 			ConditionalParameter(k2, hw.knob[Terrarium::KNOB_2].Process(), gFlangerDepth);
 124:TerrariumMultiEffect.cpp **** 			ConditionalParameter(k3, hw.knob[Terrarium::KNOB_3].Process(), gFlangerFeedback);
 125:TerrariumMultiEffect.cpp **** 			ConditionalParameter(k5, hw.knob[Terrarium::KNOB_6].Process(), gFlangerDryWet);
 126:TerrariumMultiEffect.cpp **** 			break;
 127:TerrariumMultiEffect.cpp **** 		case crushMode:
 128:TerrariumMultiEffect.cpp **** 			ConditionalParameter(k1, hw.knob[Terrarium::KNOB_1].Process(), gCrushBitDepth);
 129:TerrariumMultiEffect.cpp **** 			ConditionalParameter(k2, hw.knob[Terrarium::KNOB_2].Process(), gCrushBitRate);
 130:TerrariumMultiEffect.cpp **** 			ConditionalParameter(k5, hw.knob[Terrarium::KNOB_6].Process(), gCrushDryWet);
 131:TerrariumMultiEffect.cpp **** 			break;
 132:TerrariumMultiEffect.cpp **** 		default:
 458              		.loc 19 132 3 view .LVU74
 133:TerrariumMultiEffect.cpp **** 			System::ResetToBootloader();
 459              		.loc 19 133 4 view .LVU75
 460              		.loc 19 133 29 is_stmt 0 view .LVU76
 461 0032 FFF7FEFF 		bl	_ZN5daisy6System17ResetToBootloaderEv
 462              	.LVL18:
 134:TerrariumMultiEffect.cpp **** 			break;
 463              		.loc 19 134 4 is_stmt 1 view .LVU77
 135:TerrariumMultiEffect.cpp **** 	}
 136:TerrariumMultiEffect.cpp **** 	// change delays and filter
 137:TerrariumMultiEffect.cpp **** 	fonepole(gCurrentDelayTime, gDelayTime, .00007f);
 138:TerrariumMultiEffect.cpp **** 	del.SetDelay(kSampleRate * ScaleNum(gCurrentDelayTime, 0.01f, 1.0f));
 139:TerrariumMultiEffect.cpp **** 	delRev.SetDelay1(kSampleRate * gCurrentDelayTime);
 140:TerrariumMultiEffect.cpp **** 	filt.SetFreq(ScaleNum(gFilterFreq, 300.0f, 20000.0f));
 464              		.loc 19 140 14 is_stmt 0 view .LVU78
 465 0036 CF4B     		ldr	r3, .L56+20
 466 0038 DFF8BCA3 		ldr	r10, .L56+152
 467 003c CE4F     		ldr	r7, .L56+24
 468 003e D3ED007A 		vldr.32	s15, [r3]
 469 0042 DFF8B883 		ldr	r8, .L56+156
 470 0046 DFF8B893 		ldr	r9, .L56+160
 471 004a CC4E     		ldr	r6, .L56+28
 472 004c CC4D     		ldr	r5, .L56+32
 473              	.L30:
 137:TerrariumMultiEffect.cpp **** 	del.SetDelay(kSampleRate * ScaleNum(gCurrentDelayTime, 0.01f, 1.0f));
 474              		.loc 19 137 2 is_stmt 1 view .LVU79
 475              	.LVL19:
 476              	.LBB357:
 477              	.LBI357:
 478              		.file 21 "../../DaisySP//Source/Utility/dsp.h"
   1:../../DaisySP//Source/Utility/dsp.h **** /** Helpful defines, functions, and other utilities for use in/with daisysp modules.
   2:../../DaisySP//Source/Utility/dsp.h **** */
   3:../../DaisySP//Source/Utility/dsp.h **** #pragma once
   4:../../DaisySP//Source/Utility/dsp.h **** #ifndef DSY_CORE_DSP
   5:../../DaisySP//Source/Utility/dsp.h **** #define DSY_CORE_DSP
   6:../../DaisySP//Source/Utility/dsp.h **** #include <cassert>
   7:../../DaisySP//Source/Utility/dsp.h **** #include <cstdint>
ARM GAS  /var/folders/nm/rdtk7lzx1rb7s7p13pzvn_qr0000gn/T//ccdQxqBE.s 			page 25


   8:../../DaisySP//Source/Utility/dsp.h **** #include <random>
   9:../../DaisySP//Source/Utility/dsp.h **** #include <cmath>
  10:../../DaisySP//Source/Utility/dsp.h **** 
  11:../../DaisySP//Source/Utility/dsp.h **** /** PIs
  12:../../DaisySP//Source/Utility/dsp.h **** */
  13:../../DaisySP//Source/Utility/dsp.h **** #define PI_F 3.1415927410125732421875f
  14:../../DaisySP//Source/Utility/dsp.h **** #define TWOPI_F (2.0f * PI_F)
  15:../../DaisySP//Source/Utility/dsp.h **** #define HALFPI_F (PI_F * 0.5f)
  16:../../DaisySP//Source/Utility/dsp.h **** #define DSY_MIN(in, mn) (in < mn ? in : mn)
  17:../../DaisySP//Source/Utility/dsp.h **** #define DSY_MAX(in, mx) (in > mx ? in : mx)
  18:../../DaisySP//Source/Utility/dsp.h **** #define DSY_CLAMP(in, mn, mx) (DSY_MIN(DSY_MAX(in, mn), mx))
  19:../../DaisySP//Source/Utility/dsp.h **** #define DSY_COUNTOF(_arr) (sizeof(_arr) / sizeof(_arr[0]))
  20:../../DaisySP//Source/Utility/dsp.h **** 
  21:../../DaisySP//Source/Utility/dsp.h **** namespace daisysp
  22:../../DaisySP//Source/Utility/dsp.h **** {
  23:../../DaisySP//Source/Utility/dsp.h **** //Avoids division for random floats. e.g. rand() * kRandFrac
  24:../../DaisySP//Source/Utility/dsp.h **** static constexpr float kRandFrac = 1.f / (float)RAND_MAX;
  25:../../DaisySP//Source/Utility/dsp.h **** 
  26:../../DaisySP//Source/Utility/dsp.h **** //Convert from semitones to other units. e.g. 2 ^ (kOneTwelfth * x)
  27:../../DaisySP//Source/Utility/dsp.h **** static constexpr float kOneTwelfth = 1.f / 12.f;
  28:../../DaisySP//Source/Utility/dsp.h **** 
  29:../../DaisySP//Source/Utility/dsp.h **** /** efficient floating point min/max
  30:../../DaisySP//Source/Utility/dsp.h **** c/o stephen mccaul
  31:../../DaisySP//Source/Utility/dsp.h **** */
  32:../../DaisySP//Source/Utility/dsp.h **** inline float fmax(float a, float b)
  33:../../DaisySP//Source/Utility/dsp.h **** {
  34:../../DaisySP//Source/Utility/dsp.h ****     float r;
  35:../../DaisySP//Source/Utility/dsp.h **** #ifdef __arm__
  36:../../DaisySP//Source/Utility/dsp.h ****     asm("vmaxnm.f32 %[d], %[n], %[m]" : [d] "=t"(r) : [n] "t"(a), [m] "t"(b) :);
  37:../../DaisySP//Source/Utility/dsp.h **** #else
  38:../../DaisySP//Source/Utility/dsp.h ****     r = (a > b) ? a : b;
  39:../../DaisySP//Source/Utility/dsp.h **** #endif // __arm__
  40:../../DaisySP//Source/Utility/dsp.h ****     return r;
  41:../../DaisySP//Source/Utility/dsp.h **** }
  42:../../DaisySP//Source/Utility/dsp.h **** 
  43:../../DaisySP//Source/Utility/dsp.h **** inline float fmin(float a, float b)
  44:../../DaisySP//Source/Utility/dsp.h **** {
  45:../../DaisySP//Source/Utility/dsp.h ****     float r;
  46:../../DaisySP//Source/Utility/dsp.h **** #ifdef __arm__
  47:../../DaisySP//Source/Utility/dsp.h ****     asm("vminnm.f32 %[d], %[n], %[m]" : [d] "=t"(r) : [n] "t"(a), [m] "t"(b) :);
  48:../../DaisySP//Source/Utility/dsp.h **** #else
  49:../../DaisySP//Source/Utility/dsp.h ****     r = (a < b) ? a : b;
  50:../../DaisySP//Source/Utility/dsp.h **** #endif // __arm__
  51:../../DaisySP//Source/Utility/dsp.h ****     return r;
  52:../../DaisySP//Source/Utility/dsp.h **** }
  53:../../DaisySP//Source/Utility/dsp.h **** 
  54:../../DaisySP//Source/Utility/dsp.h **** /** quick fp clamp
  55:../../DaisySP//Source/Utility/dsp.h **** */
  56:../../DaisySP//Source/Utility/dsp.h **** inline float fclamp(float in, float min, float max)
  57:../../DaisySP//Source/Utility/dsp.h **** {
  58:../../DaisySP//Source/Utility/dsp.h ****     return fmin(fmax(in, min), max);
  59:../../DaisySP//Source/Utility/dsp.h **** }
  60:../../DaisySP//Source/Utility/dsp.h **** 
  61:../../DaisySP//Source/Utility/dsp.h **** /** From Musicdsp.org "Fast power and root estimates for 32bit floats)
  62:../../DaisySP//Source/Utility/dsp.h **** Original code by Stefan Stenzel
  63:../../DaisySP//Source/Utility/dsp.h **** These are approximations
  64:../../DaisySP//Source/Utility/dsp.h **** */
ARM GAS  /var/folders/nm/rdtk7lzx1rb7s7p13pzvn_qr0000gn/T//ccdQxqBE.s 			page 26


  65:../../DaisySP//Source/Utility/dsp.h **** inline float fastpower(float f, int n)
  66:../../DaisySP//Source/Utility/dsp.h **** {
  67:../../DaisySP//Source/Utility/dsp.h ****     long *lp, l;
  68:../../DaisySP//Source/Utility/dsp.h ****     lp = (long *)(&f);
  69:../../DaisySP//Source/Utility/dsp.h ****     l  = *lp;
  70:../../DaisySP//Source/Utility/dsp.h ****     l -= 0x3F800000;
  71:../../DaisySP//Source/Utility/dsp.h ****     l <<= (n - 1);
  72:../../DaisySP//Source/Utility/dsp.h ****     l += 0x3F800000;
  73:../../DaisySP//Source/Utility/dsp.h ****     *lp = l;
  74:../../DaisySP//Source/Utility/dsp.h ****     return f;
  75:../../DaisySP//Source/Utility/dsp.h **** }
  76:../../DaisySP//Source/Utility/dsp.h **** 
  77:../../DaisySP//Source/Utility/dsp.h **** inline float fastroot(float f, int n)
  78:../../DaisySP//Source/Utility/dsp.h **** {
  79:../../DaisySP//Source/Utility/dsp.h ****     long *lp, l;
  80:../../DaisySP//Source/Utility/dsp.h ****     lp = (long *)(&f);
  81:../../DaisySP//Source/Utility/dsp.h ****     l  = *lp;
  82:../../DaisySP//Source/Utility/dsp.h ****     l -= 0x3F800000;
  83:../../DaisySP//Source/Utility/dsp.h ****     l >>= (n = 1);
  84:../../DaisySP//Source/Utility/dsp.h ****     l += 0x3F800000;
  85:../../DaisySP//Source/Utility/dsp.h ****     *lp = l;
  86:../../DaisySP//Source/Utility/dsp.h ****     return f;
  87:../../DaisySP//Source/Utility/dsp.h **** }
  88:../../DaisySP//Source/Utility/dsp.h **** 
  89:../../DaisySP//Source/Utility/dsp.h **** /** From http://openaudio.blogspot.com/2017/02/faster-log10-and-pow.html
  90:../../DaisySP//Source/Utility/dsp.h **** No approximation, pow10f(x) gives a 90% speed increase over powf(10.f, x)
  91:../../DaisySP//Source/Utility/dsp.h **** */
  92:../../DaisySP//Source/Utility/dsp.h **** inline float pow10f(float f)
  93:../../DaisySP//Source/Utility/dsp.h **** {
  94:../../DaisySP//Source/Utility/dsp.h ****     return expf(2.302585092994046f * f);
  95:../../DaisySP//Source/Utility/dsp.h **** }
  96:../../DaisySP//Source/Utility/dsp.h **** 
  97:../../DaisySP//Source/Utility/dsp.h **** /* Original code for fastlog2f by Dr. Paul Beckmann from the ARM community forum, adapted from the 
  98:../../DaisySP//Source/Utility/dsp.h **** About 25% performance increase over std::log10f
  99:../../DaisySP//Source/Utility/dsp.h **** */
 100:../../DaisySP//Source/Utility/dsp.h **** inline float fastlog2f(float f)
 101:../../DaisySP//Source/Utility/dsp.h **** {
 102:../../DaisySP//Source/Utility/dsp.h ****     float frac;
 103:../../DaisySP//Source/Utility/dsp.h ****     int   exp;
 104:../../DaisySP//Source/Utility/dsp.h ****     frac = frexpf(fabsf(f), &exp);
 105:../../DaisySP//Source/Utility/dsp.h ****     f    = 1.23149591368684f;
 106:../../DaisySP//Source/Utility/dsp.h ****     f *= frac;
 107:../../DaisySP//Source/Utility/dsp.h ****     f += -4.11852516267426f;
 108:../../DaisySP//Source/Utility/dsp.h ****     f *= frac;
 109:../../DaisySP//Source/Utility/dsp.h ****     f += 6.02197014179219f;
 110:../../DaisySP//Source/Utility/dsp.h ****     f *= frac;
 111:../../DaisySP//Source/Utility/dsp.h ****     f += -3.13396450166353f;
 112:../../DaisySP//Source/Utility/dsp.h ****     f += exp;
 113:../../DaisySP//Source/Utility/dsp.h ****     return (f);
 114:../../DaisySP//Source/Utility/dsp.h **** }
 115:../../DaisySP//Source/Utility/dsp.h **** 
 116:../../DaisySP//Source/Utility/dsp.h **** inline float fastlog10f(float f)
 117:../../DaisySP//Source/Utility/dsp.h **** {
 118:../../DaisySP//Source/Utility/dsp.h ****     return fastlog2f(f) * 0.3010299956639812f;
 119:../../DaisySP//Source/Utility/dsp.h **** }
 120:../../DaisySP//Source/Utility/dsp.h **** 
 121:../../DaisySP//Source/Utility/dsp.h **** /** Midi to frequency helper
ARM GAS  /var/folders/nm/rdtk7lzx1rb7s7p13pzvn_qr0000gn/T//ccdQxqBE.s 			page 27


 122:../../DaisySP//Source/Utility/dsp.h **** */
 123:../../DaisySP//Source/Utility/dsp.h **** inline float mtof(float m)
 124:../../DaisySP//Source/Utility/dsp.h **** {
 125:../../DaisySP//Source/Utility/dsp.h ****     return powf(2, (m - 69.0f) / 12.0f) * 440.0f;
 126:../../DaisySP//Source/Utility/dsp.h **** }
 127:../../DaisySP//Source/Utility/dsp.h **** 
 128:../../DaisySP//Source/Utility/dsp.h **** 
 129:../../DaisySP//Source/Utility/dsp.h **** /** one pole lpf
 130:../../DaisySP//Source/Utility/dsp.h **** out is passed by reference, and must be retained between
 131:../../DaisySP//Source/Utility/dsp.h **** calls to properly filter the signal
 132:../../DaisySP//Source/Utility/dsp.h **** coeff can be calculated:
 133:../../DaisySP//Source/Utility/dsp.h **** coeff = 1.0 / (time * sample_rate) ; where time is in seconds
 134:../../DaisySP//Source/Utility/dsp.h **** */
 135:../../DaisySP//Source/Utility/dsp.h **** inline void fonepole(float &out, float in, float coeff)
 479              		.loc 21 135 13 view .LVU80
 480              	.LBB358:
 136:../../DaisySP//Source/Utility/dsp.h **** {
 137:../../DaisySP//Source/Utility/dsp.h ****     out += coeff * (in - out);
 481              		.loc 21 137 5 view .LVU81
 482              	.LBE358:
 483              	.LBE357:
 484              	.LBB364:
 485              	.LBB365:
 104:TerrariumMultiEffect.cpp **** }
 486              		.loc 19 104 75 is_stmt 0 view .LVU82
 487 004e 9FEDCD4A 		vldr.32	s8, .L56+36
 488              	.LBE365:
 489              	.LBE364:
 490              	.LBB369:
 491              	.LBB359:
 492              		.loc 21 137 9 view .LVU83
 493 0052 CD4B     		ldr	r3, .L56+40
 494              	.LBE359:
 495              	.LBE369:
 496              	.LBB370:
 497              	.LBB366:
 104:TerrariumMultiEffect.cpp **** }
 498              		.loc 19 104 75 view .LVU84
 499 0054 DFEDCD5A 		vldr.32	s11, .L56+44
 500              	.LBE366:
 501              	.LBE370:
 502              	.LBB371:
 503              	.LBB360:
 504              		.loc 21 137 24 view .LVU85
 505 0058 DAED006A 		vldr.32	s13, [r10]
 506              	.LBE360:
 507              	.LBE371:
 508              	.LBB372:
 509              	.LBB367:
 104:TerrariumMultiEffect.cpp **** }
 510              		.loc 19 104 75 view .LVU86
 511 005c E7EE845A 		vfma.f32	s11, s15, s8
 512              	.LBE367:
 513              	.LBE372:
 514              	.LBB373:
 515              	.LBB361:
 516              		.loc 21 137 9 view .LVU87
ARM GAS  /var/folders/nm/rdtk7lzx1rb7s7p13pzvn_qr0000gn/T//ccdQxqBE.s 			page 28


 517 0060 D3ED007A 		vldr.32	s15, [r3]
 518 0064 DFEDCA4A 		vldr.32	s9, .L56+48
 519              		.loc 21 137 24 view .LVU88
 520 0068 76EEE76A 		vsub.f32	s13, s13, s15
 521              	.LBE361:
 522              	.LBE373:
 523              	.LBB374:
 524              	.LBB375:
 104:TerrariumMultiEffect.cpp **** }
 525              		.loc 19 104 75 view .LVU89
 526 006c 9FEDC95A 		vldr.32	s10, .L56+52
 527 0070 9FEDC97A 		vldr.32	s14, .L56+56
 528              	.LBE375:
 529              	.LBE374:
 138:TerrariumMultiEffect.cpp **** 	delRev.SetDelay1(kSampleRate * gCurrentDelayTime);
 530              		.loc 19 138 14 view .LVU90
 531 0074 9FEDC96A 		vldr.32	s12, .L56+60
 532              	.LBB378:
 533              	.LBB362:
 534              		.loc 21 137 9 view .LVU91
 535 0078 E6EEA47A 		vfma.f32	s15, s13, s9
 536              	.LBE362:
 537              	.LBE378:
 538              	.LBB379:
 539              	.LBB380:
  25:../../DaisySP//Source/Utility/delayline.h ****     /** initializes the delay line by clearing the values within, and setting delay to 1 sample.
  26:../../DaisySP//Source/Utility/delayline.h ****     */
  27:../../DaisySP//Source/Utility/delayline.h ****     void Init() { Reset(); }
  28:../../DaisySP//Source/Utility/delayline.h ****     /** clears buffer, sets write ptr to 0, and delay to 1 sample.
  29:../../DaisySP//Source/Utility/delayline.h ****     */
  30:../../DaisySP//Source/Utility/delayline.h ****     void Reset()
  31:../../DaisySP//Source/Utility/delayline.h ****     {
  32:../../DaisySP//Source/Utility/delayline.h ****         for(size_t i = 0; i < max_size; i++)
  33:../../DaisySP//Source/Utility/delayline.h ****         {
  34:../../DaisySP//Source/Utility/delayline.h ****             line_[i] = T(0);
  35:../../DaisySP//Source/Utility/delayline.h ****         }
  36:../../DaisySP//Source/Utility/delayline.h ****         write_ptr_ = 0;
  37:../../DaisySP//Source/Utility/delayline.h ****         delay_     = 1;
  38:../../DaisySP//Source/Utility/delayline.h ****     }
  39:../../DaisySP//Source/Utility/delayline.h **** 
  40:../../DaisySP//Source/Utility/delayline.h ****     /** sets the delay time in samples
  41:../../DaisySP//Source/Utility/delayline.h ****         If a float is passed in, a fractional component will be calculated for interpolating the de
  42:../../DaisySP//Source/Utility/delayline.h ****     */
  43:../../DaisySP//Source/Utility/delayline.h ****     inline void SetDelay(size_t delay)
  44:../../DaisySP//Source/Utility/delayline.h ****     {
  45:../../DaisySP//Source/Utility/delayline.h ****         frac_  = 0.0f;
  46:../../DaisySP//Source/Utility/delayline.h ****         delay_ = delay < max_size ? delay : max_size - 1;
  47:../../DaisySP//Source/Utility/delayline.h ****     }
  48:../../DaisySP//Source/Utility/delayline.h **** 
  49:../../DaisySP//Source/Utility/delayline.h ****     /** sets the delay time in samples
  50:../../DaisySP//Source/Utility/delayline.h ****         If a float is passed in, a fractional component will be calculated for interpolating the de
  51:../../DaisySP//Source/Utility/delayline.h ****     */
  52:../../DaisySP//Source/Utility/delayline.h ****     inline void SetDelay(float delay)
  53:../../DaisySP//Source/Utility/delayline.h ****     {
  54:../../DaisySP//Source/Utility/delayline.h ****         int32_t int_delay = static_cast<int32_t>(delay);
  55:../../DaisySP//Source/Utility/delayline.h ****         frac_             = delay - static_cast<float>(int_delay);
 540              		.loc 17 55 27 view .LVU92
ARM GAS  /var/folders/nm/rdtk7lzx1rb7s7p13pzvn_qr0000gn/T//ccdQxqBE.s 			page 29


 541 007c C849     		ldr	r1, .L56+64
 542              	.LBE380:
 543              	.LBE379:
 141:TerrariumMultiEffect.cpp **** 
 142:TerrariumMultiEffect.cpp **** 	// change flanger
 143:TerrariumMultiEffect.cpp **** 	flanger.SetFeedback(gFlangerFeedback);
 544              		.loc 19 143 21 view .LVU93
 545 007e 99ED000A 		vldr.32	s0, [r9]
 546 0082 C848     		ldr	r0, .L56+68
 547              	.LBB385:
 548              	.LBB376:
 104:TerrariumMultiEffect.cpp **** }
 549              		.loc 19 104 75 view .LVU94
 550 0084 A7EE857A 		vfma.f32	s14, s15, s10
 551              	.LBE376:
 552              	.LBE385:
 553              	.LBB386:
 554              	.LBB363:
 555              		.loc 21 137 9 view .LVU95
 556 0088 C3ED007A 		vstr.32	s15, [r3]
 557              	.LVL20:
 558              		.loc 21 137 9 view .LVU96
 559              	.LBE363:
 560              	.LBE386:
 138:TerrariumMultiEffect.cpp **** 	delRev.SetDelay1(kSampleRate * gCurrentDelayTime);
 561              		.loc 19 138 2 is_stmt 1 view .LVU97
 562              	.LBB387:
 563              	.LBI374:
  99:TerrariumMultiEffect.cpp **** {
 564              		.loc 19 99 7 view .LVU98
 565              	.LBB377:
 101:TerrariumMultiEffect.cpp **** 	float oldMax = 1;
 566              		.loc 19 101 2 view .LVU99
 102:TerrariumMultiEffect.cpp **** 
 567              		.loc 19 102 2 view .LVU100
 104:TerrariumMultiEffect.cpp **** }
 568              		.loc 19 104 2 view .LVU101
 104:TerrariumMultiEffect.cpp **** }
 569              		.loc 19 104 2 is_stmt 0 view .LVU102
 570              	.LBE377:
 571              	.LBE387:
 139:TerrariumMultiEffect.cpp **** 	filt.SetFreq(ScaleNum(gFilterFreq, 300.0f, 20000.0f));
 572              		.loc 19 139 18 view .LVU103
 573 008c 67EE867A 		vmul.f32	s15, s15, s12
 574              	.LBB388:
 575              	.LBB381:
  56:../../DaisySP//Source/Utility/delayline.h ****         delay_ = static_cast<size_t>(int_delay) < max_size ? int_delay
 576              		.loc 17 56 60 view .LVU104
 577 0090 48F69F43 		movw	r3, #35999
 578              	.LBE381:
 579              	.LBE388:
 580              	.LBB389:
 581              	.LBB390:
  40:delayline_reverse.h ****     /** initializes the delay line by clearing the values within, and setting delay to min time.
  41:delayline_reverse.h ****     */
  42:delayline_reverse.h ****     void Init() 
  43:delayline_reverse.h ****     { 
ARM GAS  /var/folders/nm/rdtk7lzx1rb7s7p13pzvn_qr0000gn/T//ccdQxqBE.s 			page 30


  44:delayline_reverse.h ****         Reset(); 
  45:delayline_reverse.h ****     }
  46:delayline_reverse.h ****     /** clears buffer, sets write ptr to 0, and delay to 1 sample.
  47:delayline_reverse.h ****     */
  48:delayline_reverse.h ****     void Reset()
  49:delayline_reverse.h ****     {
  50:delayline_reverse.h **** 
  51:delayline_reverse.h ****         delay1_  = 25000; //min Reverse delay time
  52:delayline_reverse.h ****         fadetime = 24000;    //in samples = 0.5 seconds
  53:delayline_reverse.h ****         
  54:delayline_reverse.h ****         for(size_t i = 0; i < max_size; i++)
  55:delayline_reverse.h ****         {
  56:delayline_reverse.h ****             line_[i] = T(0);
  57:delayline_reverse.h ****         }
  58:delayline_reverse.h ****         write_ptr_ = 0;
  59:delayline_reverse.h ****         read_ptr1_ = 0;
  60:delayline_reverse.h ****         read_ptr2_ = 0;
  61:delayline_reverse.h ****         headDiff_ = 0;
  62:delayline_reverse.h ****         playinghead_ = false;
  63:delayline_reverse.h ****         fadepos_ = 0.0f;
  64:delayline_reverse.h ****         fading_ = false;
  65:delayline_reverse.h ****     }
  66:delayline_reverse.h **** 
  67:delayline_reverse.h ****     /** sets the delay time in samples
  68:delayline_reverse.h ****     */
  69:delayline_reverse.h ****     inline void SetDelay1(size_t delay)
  70:delayline_reverse.h ****     {
  71:delayline_reverse.h ****         frac1_  = 0.0f;
  72:delayline_reverse.h ****         delay1_ = delay < max_size ? delay : max_size - 1;
  73:delayline_reverse.h ****     }
  74:delayline_reverse.h **** 
  75:delayline_reverse.h ****     /** sets the delay time in samples
  76:delayline_reverse.h ****         If a float is passed in, a fractional component will be calculated for interpolating the de
  77:delayline_reverse.h ****     */
  78:delayline_reverse.h ****     inline void SetDelay1(float delay)
  79:delayline_reverse.h ****     {
  80:delayline_reverse.h ****         int32_t int_delay = static_cast<int32_t>(delay);
 582              		.loc 18 80 17 view .LVU105
 583 0094 FDEEE76A 		vcvt.s32.f32	s13, s15
 584              	.LBE390:
 585              	.LBE389:
 138:TerrariumMultiEffect.cpp **** 	delRev.SetDelay1(kSampleRate * gCurrentDelayTime);
 586              		.loc 19 138 14 view .LVU106
 587 0098 27EE067A 		vmul.f32	s14, s14, s12
 588              	.LVL21:
 589              	.LBB396:
 590              	.LBI379:
  52:../../DaisySP//Source/Utility/delayline.h ****     {
 591              		.loc 17 52 17 is_stmt 1 view .LVU107
 592              	.LBE396:
 593              	.LBB397:
 594              	.LBB391:
  81:delayline_reverse.h ****         frac1_             = delay - static_cast<float>(int_delay);
 595              		.loc 18 81 38 is_stmt 0 view .LVU108
 596 009c B8EEE65A 		vcvt.f32.s32	s10, s13
 597              	.LBE391:
 598              	.LBE397:
ARM GAS  /var/folders/nm/rdtk7lzx1rb7s7p13pzvn_qr0000gn/T//ccdQxqBE.s 			page 31


 599              	.LBB398:
 600              	.LBB382:
  54:../../DaisySP//Source/Utility/delayline.h ****         frac_             = delay - static_cast<float>(int_delay);
 601              		.loc 17 54 17 view .LVU109
 602 00a0 BDEEC76A 		vcvt.s32.f32	s12, s14
 603              	.LVL22:
  54:../../DaisySP//Source/Utility/delayline.h ****         frac_             = delay - static_cast<float>(int_delay);
 604              		.loc 17 54 17 view .LVU110
 605              	.LBE382:
 606              	.LBE398:
 607              	.LBB399:
 608              	.LBB392:
 609              		.loc 18 81 36 view .LVU111
 610 00a4 77EEC57A 		vsub.f32	s15, s15, s10
 611              	.LBE392:
 612              	.LBE399:
 613              	.LBB400:
 614              	.LBB383:
 615              		.loc 17 56 60 view .LVU112
 616 00a8 16EE102A 		vmov	r2, s12	@ int
  55:../../DaisySP//Source/Utility/delayline.h ****         delay_ = static_cast<size_t>(int_delay) < max_size ? int_delay
 617              		.loc 17 55 37 view .LVU113
 618 00ac B8EEC65A 		vcvt.f32.s32	s10, s12
 619              		.loc 17 56 60 view .LVU114
 620 00b0 9A42     		cmp	r2, r3
  55:../../DaisySP//Source/Utility/delayline.h ****         delay_ = static_cast<size_t>(int_delay) < max_size ? int_delay
 621              		.loc 17 55 35 view .LVU115
 622 00b2 37EE457A 		vsub.f32	s14, s14, s10
 623              	.LVL23:
 624              		.loc 17 56 60 view .LVU116
 625 00b6 28BF     		it	cs
 626 00b8 1A46     		movcs	r2, r3
 627              		.loc 17 56 16 view .LVU117
 628 00ba 8A60     		str	r2, [r1, #8]
 629              	.LVL24:
 630              		.loc 17 56 16 view .LVU118
 631              	.LBE383:
 632              	.LBE400:
 139:TerrariumMultiEffect.cpp **** 	filt.SetFreq(ScaleNum(gFilterFreq, 300.0f, 20000.0f));
 633              		.loc 19 139 2 is_stmt 1 view .LVU119
 634              	.LBB401:
 635              	.LBI389:
  78:delayline_reverse.h ****     {
 636              		.loc 18 78 17 view .LVU120
 637              	.LBB393:
  82:delayline_reverse.h ****         delay1_ = static_cast<size_t>(int_delay) < max_size ? int_delay
 638              		.loc 18 82 61 is_stmt 0 view .LVU121
 639 00bc 16EE902A 		vmov	r2, s13	@ int
 640              	.LBE393:
 641              	.LBE401:
 642              	.LBB402:
 643              	.LBB384:
  55:../../DaisySP//Source/Utility/delayline.h ****         delay_ = static_cast<size_t>(int_delay) < max_size ? int_delay
 644              		.loc 17 55 27 view .LVU122
 645 00c0 81ED007A 		vstr.32	s14, [r1]
 646              	.LBE384:
 647              	.LBE402:
ARM GAS  /var/folders/nm/rdtk7lzx1rb7s7p13pzvn_qr0000gn/T//ccdQxqBE.s 			page 32


 648              	.LBB403:
 649              	.LBB394:
 650              		.loc 18 82 61 view .LVU123
 651 00c4 9A42     		cmp	r2, r3
 652 00c6 28BF     		it	cs
 653 00c8 1A46     		movcs	r2, r3
 654 00ca 1346     		mov	r3, r2
  81:delayline_reverse.h ****         delay1_ = static_cast<size_t>(int_delay) < max_size ? int_delay
 655              		.loc 18 81 28 view .LVU124
 656 00cc B64A     		ldr	r2, .L56+72
 657              		.loc 18 82 17 view .LVU125
 658 00ce 1361     		str	r3, [r2, #16]
 659              	.LVL25:
 660              		.loc 18 82 17 view .LVU126
 661              	.LBE394:
 662              	.LBE403:
 140:TerrariumMultiEffect.cpp **** 
 663              		.loc 19 140 2 is_stmt 1 view .LVU127
 664              	.LBB404:
 665              	.LBI364:
  99:TerrariumMultiEffect.cpp **** {
 666              		.loc 19 99 7 view .LVU128
 667              	.LBB368:
 101:TerrariumMultiEffect.cpp **** 	float oldMax = 1;
 668              		.loc 19 101 2 view .LVU129
 102:TerrariumMultiEffect.cpp **** 
 669              		.loc 19 102 2 view .LVU130
 104:TerrariumMultiEffect.cpp **** }
 670              		.loc 19 104 2 view .LVU131
 104:TerrariumMultiEffect.cpp **** }
 671              		.loc 19 104 2 is_stmt 0 view .LVU132
 672              	.LBE368:
 673              	.LBE404:
 674              	.LBB405:
 675              	.LBI405:
  22:../../DaisySP//Source/Filters/moogladder.h ****     /** Initializes the MoogLadder module.
  23:../../DaisySP//Source/Filters/moogladder.h ****         sample_rate - The sample rate of the audio engine being run. 
  24:../../DaisySP//Source/Filters/moogladder.h ****     */
  25:../../DaisySP//Source/Filters/moogladder.h ****     void Init(float sample_rate);
  26:../../DaisySP//Source/Filters/moogladder.h **** 
  27:../../DaisySP//Source/Filters/moogladder.h **** 
  28:../../DaisySP//Source/Filters/moogladder.h ****     /** Processes the lowpass filter
  29:../../DaisySP//Source/Filters/moogladder.h ****     */
  30:../../DaisySP//Source/Filters/moogladder.h ****     float Process(float in);
  31:../../DaisySP//Source/Filters/moogladder.h **** 
  32:../../DaisySP//Source/Filters/moogladder.h ****     /** 
  33:../../DaisySP//Source/Filters/moogladder.h ****         Sets the cutoff frequency or half-way point of the filter.
  34:../../DaisySP//Source/Filters/moogladder.h ****         Arguments
  35:../../DaisySP//Source/Filters/moogladder.h ****         - freq - frequency value in Hz. Range: Any positive value.
  36:../../DaisySP//Source/Filters/moogladder.h ****     */
  37:../../DaisySP//Source/Filters/moogladder.h ****     inline void SetFreq(float freq) { freq_ = freq; }
 676              		.loc 14 37 17 is_stmt 1 view .LVU133
 677              	.LBB406:
 678              		.loc 14 37 39 view .LVU134
 679              		.loc 14 37 45 is_stmt 0 view .LVU135
 680 00d0 B64B     		ldr	r3, .L56+76
 681              	.LBE406:
ARM GAS  /var/folders/nm/rdtk7lzx1rb7s7p13pzvn_qr0000gn/T//ccdQxqBE.s 			page 33


 682              	.LBE405:
 683              	.LBB408:
 684              	.LBB395:
  81:delayline_reverse.h ****         delay1_ = static_cast<size_t>(int_delay) < max_size ? int_delay
 685              		.loc 18 81 28 view .LVU136
 686 00d2 C2ED007A 		vstr.32	s15, [r2]
 687              	.LBE395:
 688              	.LBE408:
 689              	.LBB409:
 690              	.LBB407:
 691              		.loc 14 37 45 view .LVU137
 692 00d6 C3ED025A 		vstr.32	s11, [r3, #8]
 693              	.LVL26:
 694              		.loc 14 37 45 view .LVU138
 695              	.LBE407:
 696              	.LBE409:
 697              		.loc 19 143 2 is_stmt 1 view .LVU139
 698              		.loc 19 143 21 is_stmt 0 view .LVU140
 699 00da FFF7FEFF 		bl	_ZN7daisysp7Flanger11SetFeedbackEf
 700              	.LVL27:
 144:TerrariumMultiEffect.cpp **** 	flanger.SetLfoDepth(gFlangerDepth);
 701              		.loc 19 144 2 is_stmt 1 view .LVU141
 702              		.loc 19 144 21 is_stmt 0 view .LVU142
 703 00de 98ED000A 		vldr.32	s0, [r8]
 704 00e2 B048     		ldr	r0, .L56+68
 705 00e4 FFF7FEFF 		bl	_ZN7daisysp7Flanger11SetLfoDepthEf
 706              	.LVL28:
 145:TerrariumMultiEffect.cpp **** 	flanger.SetLfoFreq(gFlangerFreq);
 707              		.loc 19 145 2 is_stmt 1 view .LVU143
 708              		.loc 19 145 20 is_stmt 0 view .LVU144
 709 00e8 97ED000A 		vldr.32	s0, [r7]
 710 00ec AD48     		ldr	r0, .L56+68
 711 00ee FFF7FEFF 		bl	_ZN7daisysp7Flanger10SetLfoFreqEf
 712              	.LVL29:
 146:TerrariumMultiEffect.cpp **** 
 147:TerrariumMultiEffect.cpp **** 	// change bitcrusher
 148:TerrariumMultiEffect.cpp **** 	crush.SetBitDepth(round(ScaleNum(gCrushBitDepth, 1.0f, 16.0f)));
 713              		.loc 19 148 2 is_stmt 1 view .LVU145
 714              	.LBB410:
 715              	.LBI410:
  99:TerrariumMultiEffect.cpp **** {
 716              		.loc 19 99 7 view .LVU146
 717              	.LBB411:
 101:TerrariumMultiEffect.cpp **** 	float oldMax = 1;
 718              		.loc 19 101 2 view .LVU147
 102:TerrariumMultiEffect.cpp **** 
 719              		.loc 19 102 2 view .LVU148
 104:TerrariumMultiEffect.cpp **** }
 720              		.loc 19 104 2 view .LVU149
 104:TerrariumMultiEffect.cpp **** }
 721              		.loc 19 104 75 is_stmt 0 view .LVU150
 722 00f2 F2EE0E6A 		vmov.f32	s13, #1.5e+1
 723 00f6 F7EE007A 		vmov.f32	s15, #1.0e+0
 724 00fa D6ED004A 		vldr.32	s9, [r6]
 725              	.LBE411:
 726              	.LBE410:
 727              	.LBB413:
ARM GAS  /var/folders/nm/rdtk7lzx1rb7s7p13pzvn_qr0000gn/T//ccdQxqBE.s 			page 34


 728              	.LBB414:
 729 00fe 95ED005A 		vldr.32	s10, [r5]
 730 0102 DFEDAB5A 		vldr.32	s11, .L56+80
 731              	.LBE414:
 732              	.LBE413:
 733              	.LBB418:
 734              	.LBB412:
 735 0106 E4EEA67A 		vfma.f32	s15, s9, s13
 736              	.LVL30:
 104:TerrariumMultiEffect.cpp **** }
 737              		.loc 19 104 75 view .LVU151
 738              	.LBE412:
 739              	.LBE418:
 740              	.LBB419:
 741              	.LBI419:
 742              		.file 22 "/Applications/ARM/arm-none-eabi/include/c++/10.3.1/cmath"
   1:/Applications/ARM/arm-none-eabi/include/c++/10.3.1/cmath **** // -*- C++ -*- C forwarding header.
   2:/Applications/ARM/arm-none-eabi/include/c++/10.3.1/cmath **** 
   3:/Applications/ARM/arm-none-eabi/include/c++/10.3.1/cmath **** // Copyright (C) 1997-2020 Free Software Foundation, Inc.
   4:/Applications/ARM/arm-none-eabi/include/c++/10.3.1/cmath **** //
   5:/Applications/ARM/arm-none-eabi/include/c++/10.3.1/cmath **** // This file is part of the GNU ISO C++ Library.  This library is free
   6:/Applications/ARM/arm-none-eabi/include/c++/10.3.1/cmath **** // software; you can redistribute it and/or modify it under the
   7:/Applications/ARM/arm-none-eabi/include/c++/10.3.1/cmath **** // terms of the GNU General Public License as published by the
   8:/Applications/ARM/arm-none-eabi/include/c++/10.3.1/cmath **** // Free Software Foundation; either version 3, or (at your option)
   9:/Applications/ARM/arm-none-eabi/include/c++/10.3.1/cmath **** // any later version.
  10:/Applications/ARM/arm-none-eabi/include/c++/10.3.1/cmath **** 
  11:/Applications/ARM/arm-none-eabi/include/c++/10.3.1/cmath **** // This library is distributed in the hope that it will be useful,
  12:/Applications/ARM/arm-none-eabi/include/c++/10.3.1/cmath **** // but WITHOUT ANY WARRANTY; without even the implied warranty of
  13:/Applications/ARM/arm-none-eabi/include/c++/10.3.1/cmath **** // MERCHANTABILITY or FITNESS FOR A PARTICULAR PURPOSE.  See the
  14:/Applications/ARM/arm-none-eabi/include/c++/10.3.1/cmath **** // GNU General Public License for more details.
  15:/Applications/ARM/arm-none-eabi/include/c++/10.3.1/cmath **** 
  16:/Applications/ARM/arm-none-eabi/include/c++/10.3.1/cmath **** // Under Section 7 of GPL version 3, you are granted additional
  17:/Applications/ARM/arm-none-eabi/include/c++/10.3.1/cmath **** // permissions described in the GCC Runtime Library Exception, version
  18:/Applications/ARM/arm-none-eabi/include/c++/10.3.1/cmath **** // 3.1, as published by the Free Software Foundation.
  19:/Applications/ARM/arm-none-eabi/include/c++/10.3.1/cmath **** 
  20:/Applications/ARM/arm-none-eabi/include/c++/10.3.1/cmath **** // You should have received a copy of the GNU General Public License and
  21:/Applications/ARM/arm-none-eabi/include/c++/10.3.1/cmath **** // a copy of the GCC Runtime Library Exception along with this program;
  22:/Applications/ARM/arm-none-eabi/include/c++/10.3.1/cmath **** // see the files COPYING3 and COPYING.RUNTIME respectively.  If not, see
  23:/Applications/ARM/arm-none-eabi/include/c++/10.3.1/cmath **** // <http://www.gnu.org/licenses/>.
  24:/Applications/ARM/arm-none-eabi/include/c++/10.3.1/cmath **** 
  25:/Applications/ARM/arm-none-eabi/include/c++/10.3.1/cmath **** /** @file include/cmath
  26:/Applications/ARM/arm-none-eabi/include/c++/10.3.1/cmath ****  *  This is a Standard C++ Library file.  You should @c \#include this file
  27:/Applications/ARM/arm-none-eabi/include/c++/10.3.1/cmath ****  *  in your programs, rather than any of the @a *.h implementation files.
  28:/Applications/ARM/arm-none-eabi/include/c++/10.3.1/cmath ****  *
  29:/Applications/ARM/arm-none-eabi/include/c++/10.3.1/cmath ****  *  This is the C++ version of the Standard C Library header @c math.h,
  30:/Applications/ARM/arm-none-eabi/include/c++/10.3.1/cmath ****  *  and its contents are (mostly) the same as that header, but are all
  31:/Applications/ARM/arm-none-eabi/include/c++/10.3.1/cmath ****  *  contained in the namespace @c std (except for names which are defined
  32:/Applications/ARM/arm-none-eabi/include/c++/10.3.1/cmath ****  *  as macros in C).
  33:/Applications/ARM/arm-none-eabi/include/c++/10.3.1/cmath ****  */
  34:/Applications/ARM/arm-none-eabi/include/c++/10.3.1/cmath **** 
  35:/Applications/ARM/arm-none-eabi/include/c++/10.3.1/cmath **** //
  36:/Applications/ARM/arm-none-eabi/include/c++/10.3.1/cmath **** // ISO C++ 14882: 26.5  C library
  37:/Applications/ARM/arm-none-eabi/include/c++/10.3.1/cmath **** //
  38:/Applications/ARM/arm-none-eabi/include/c++/10.3.1/cmath **** 
  39:/Applications/ARM/arm-none-eabi/include/c++/10.3.1/cmath **** #pragma GCC system_header
  40:/Applications/ARM/arm-none-eabi/include/c++/10.3.1/cmath **** 
  41:/Applications/ARM/arm-none-eabi/include/c++/10.3.1/cmath **** #include <bits/c++config.h>
ARM GAS  /var/folders/nm/rdtk7lzx1rb7s7p13pzvn_qr0000gn/T//ccdQxqBE.s 			page 35


  42:/Applications/ARM/arm-none-eabi/include/c++/10.3.1/cmath **** #include <bits/cpp_type_traits.h>
  43:/Applications/ARM/arm-none-eabi/include/c++/10.3.1/cmath **** #include <ext/type_traits.h>
  44:/Applications/ARM/arm-none-eabi/include/c++/10.3.1/cmath **** #define _GLIBCXX_INCLUDE_NEXT_C_HEADERS
  45:/Applications/ARM/arm-none-eabi/include/c++/10.3.1/cmath **** #include_next <math.h>
  46:/Applications/ARM/arm-none-eabi/include/c++/10.3.1/cmath **** #undef _GLIBCXX_INCLUDE_NEXT_C_HEADERS
  47:/Applications/ARM/arm-none-eabi/include/c++/10.3.1/cmath **** #include <bits/std_abs.h>
  48:/Applications/ARM/arm-none-eabi/include/c++/10.3.1/cmath **** 
  49:/Applications/ARM/arm-none-eabi/include/c++/10.3.1/cmath **** #ifndef _GLIBCXX_CMATH
  50:/Applications/ARM/arm-none-eabi/include/c++/10.3.1/cmath **** #define _GLIBCXX_CMATH 1
  51:/Applications/ARM/arm-none-eabi/include/c++/10.3.1/cmath **** 
  52:/Applications/ARM/arm-none-eabi/include/c++/10.3.1/cmath **** // Get rid of those macros defined in <math.h> in lieu of real functions.
  53:/Applications/ARM/arm-none-eabi/include/c++/10.3.1/cmath **** #undef div
  54:/Applications/ARM/arm-none-eabi/include/c++/10.3.1/cmath **** #undef acos
  55:/Applications/ARM/arm-none-eabi/include/c++/10.3.1/cmath **** #undef asin
  56:/Applications/ARM/arm-none-eabi/include/c++/10.3.1/cmath **** #undef atan
  57:/Applications/ARM/arm-none-eabi/include/c++/10.3.1/cmath **** #undef atan2
  58:/Applications/ARM/arm-none-eabi/include/c++/10.3.1/cmath **** #undef ceil
  59:/Applications/ARM/arm-none-eabi/include/c++/10.3.1/cmath **** #undef cos
  60:/Applications/ARM/arm-none-eabi/include/c++/10.3.1/cmath **** #undef cosh
  61:/Applications/ARM/arm-none-eabi/include/c++/10.3.1/cmath **** #undef exp
  62:/Applications/ARM/arm-none-eabi/include/c++/10.3.1/cmath **** #undef fabs
  63:/Applications/ARM/arm-none-eabi/include/c++/10.3.1/cmath **** #undef floor
  64:/Applications/ARM/arm-none-eabi/include/c++/10.3.1/cmath **** #undef fmod
  65:/Applications/ARM/arm-none-eabi/include/c++/10.3.1/cmath **** #undef frexp
  66:/Applications/ARM/arm-none-eabi/include/c++/10.3.1/cmath **** #undef ldexp
  67:/Applications/ARM/arm-none-eabi/include/c++/10.3.1/cmath **** #undef log
  68:/Applications/ARM/arm-none-eabi/include/c++/10.3.1/cmath **** #undef log10
  69:/Applications/ARM/arm-none-eabi/include/c++/10.3.1/cmath **** #undef modf
  70:/Applications/ARM/arm-none-eabi/include/c++/10.3.1/cmath **** #undef pow
  71:/Applications/ARM/arm-none-eabi/include/c++/10.3.1/cmath **** #undef sin
  72:/Applications/ARM/arm-none-eabi/include/c++/10.3.1/cmath **** #undef sinh
  73:/Applications/ARM/arm-none-eabi/include/c++/10.3.1/cmath **** #undef sqrt
  74:/Applications/ARM/arm-none-eabi/include/c++/10.3.1/cmath **** #undef tan
  75:/Applications/ARM/arm-none-eabi/include/c++/10.3.1/cmath **** #undef tanh
  76:/Applications/ARM/arm-none-eabi/include/c++/10.3.1/cmath **** 
  77:/Applications/ARM/arm-none-eabi/include/c++/10.3.1/cmath **** extern "C++"
  78:/Applications/ARM/arm-none-eabi/include/c++/10.3.1/cmath **** {
  79:/Applications/ARM/arm-none-eabi/include/c++/10.3.1/cmath **** namespace std _GLIBCXX_VISIBILITY(default)
  80:/Applications/ARM/arm-none-eabi/include/c++/10.3.1/cmath **** {
  81:/Applications/ARM/arm-none-eabi/include/c++/10.3.1/cmath **** _GLIBCXX_BEGIN_NAMESPACE_VERSION
  82:/Applications/ARM/arm-none-eabi/include/c++/10.3.1/cmath **** 
  83:/Applications/ARM/arm-none-eabi/include/c++/10.3.1/cmath ****   using ::acos;
  84:/Applications/ARM/arm-none-eabi/include/c++/10.3.1/cmath **** 
  85:/Applications/ARM/arm-none-eabi/include/c++/10.3.1/cmath **** #ifndef __CORRECT_ISO_CPP_MATH_H_PROTO
  86:/Applications/ARM/arm-none-eabi/include/c++/10.3.1/cmath ****   inline _GLIBCXX_CONSTEXPR float
  87:/Applications/ARM/arm-none-eabi/include/c++/10.3.1/cmath ****   acos(float __x)
  88:/Applications/ARM/arm-none-eabi/include/c++/10.3.1/cmath ****   { return __builtin_acosf(__x); }
  89:/Applications/ARM/arm-none-eabi/include/c++/10.3.1/cmath **** 
  90:/Applications/ARM/arm-none-eabi/include/c++/10.3.1/cmath ****   inline _GLIBCXX_CONSTEXPR long double
  91:/Applications/ARM/arm-none-eabi/include/c++/10.3.1/cmath ****   acos(long double __x)
  92:/Applications/ARM/arm-none-eabi/include/c++/10.3.1/cmath ****   { return __builtin_acosl(__x); }
  93:/Applications/ARM/arm-none-eabi/include/c++/10.3.1/cmath **** #endif
  94:/Applications/ARM/arm-none-eabi/include/c++/10.3.1/cmath **** 
  95:/Applications/ARM/arm-none-eabi/include/c++/10.3.1/cmath ****   template<typename _Tp>
  96:/Applications/ARM/arm-none-eabi/include/c++/10.3.1/cmath ****     inline _GLIBCXX_CONSTEXPR
  97:/Applications/ARM/arm-none-eabi/include/c++/10.3.1/cmath ****     typename __gnu_cxx::__enable_if<__is_integer<_Tp>::__value, 
  98:/Applications/ARM/arm-none-eabi/include/c++/10.3.1/cmath ****                                     double>::__type
ARM GAS  /var/folders/nm/rdtk7lzx1rb7s7p13pzvn_qr0000gn/T//ccdQxqBE.s 			page 36


  99:/Applications/ARM/arm-none-eabi/include/c++/10.3.1/cmath ****     acos(_Tp __x)
 100:/Applications/ARM/arm-none-eabi/include/c++/10.3.1/cmath ****     { return __builtin_acos(__x); }
 101:/Applications/ARM/arm-none-eabi/include/c++/10.3.1/cmath **** 
 102:/Applications/ARM/arm-none-eabi/include/c++/10.3.1/cmath ****   using ::asin;
 103:/Applications/ARM/arm-none-eabi/include/c++/10.3.1/cmath **** 
 104:/Applications/ARM/arm-none-eabi/include/c++/10.3.1/cmath **** #ifndef __CORRECT_ISO_CPP_MATH_H_PROTO
 105:/Applications/ARM/arm-none-eabi/include/c++/10.3.1/cmath ****   inline _GLIBCXX_CONSTEXPR float
 106:/Applications/ARM/arm-none-eabi/include/c++/10.3.1/cmath ****   asin(float __x)
 107:/Applications/ARM/arm-none-eabi/include/c++/10.3.1/cmath ****   { return __builtin_asinf(__x); }
 108:/Applications/ARM/arm-none-eabi/include/c++/10.3.1/cmath **** 
 109:/Applications/ARM/arm-none-eabi/include/c++/10.3.1/cmath ****   inline _GLIBCXX_CONSTEXPR long double
 110:/Applications/ARM/arm-none-eabi/include/c++/10.3.1/cmath ****   asin(long double __x)
 111:/Applications/ARM/arm-none-eabi/include/c++/10.3.1/cmath ****   { return __builtin_asinl(__x); }
 112:/Applications/ARM/arm-none-eabi/include/c++/10.3.1/cmath **** #endif
 113:/Applications/ARM/arm-none-eabi/include/c++/10.3.1/cmath **** 
 114:/Applications/ARM/arm-none-eabi/include/c++/10.3.1/cmath ****   template<typename _Tp>
 115:/Applications/ARM/arm-none-eabi/include/c++/10.3.1/cmath ****     inline _GLIBCXX_CONSTEXPR
 116:/Applications/ARM/arm-none-eabi/include/c++/10.3.1/cmath ****     typename __gnu_cxx::__enable_if<__is_integer<_Tp>::__value,
 117:/Applications/ARM/arm-none-eabi/include/c++/10.3.1/cmath ****                                     double>::__type
 118:/Applications/ARM/arm-none-eabi/include/c++/10.3.1/cmath ****     asin(_Tp __x)
 119:/Applications/ARM/arm-none-eabi/include/c++/10.3.1/cmath ****     { return __builtin_asin(__x); }
 120:/Applications/ARM/arm-none-eabi/include/c++/10.3.1/cmath **** 
 121:/Applications/ARM/arm-none-eabi/include/c++/10.3.1/cmath ****   using ::atan;
 122:/Applications/ARM/arm-none-eabi/include/c++/10.3.1/cmath **** 
 123:/Applications/ARM/arm-none-eabi/include/c++/10.3.1/cmath **** #ifndef __CORRECT_ISO_CPP_MATH_H_PROTO
 124:/Applications/ARM/arm-none-eabi/include/c++/10.3.1/cmath ****   inline _GLIBCXX_CONSTEXPR float
 125:/Applications/ARM/arm-none-eabi/include/c++/10.3.1/cmath ****   atan(float __x)
 126:/Applications/ARM/arm-none-eabi/include/c++/10.3.1/cmath ****   { return __builtin_atanf(__x); }
 127:/Applications/ARM/arm-none-eabi/include/c++/10.3.1/cmath **** 
 128:/Applications/ARM/arm-none-eabi/include/c++/10.3.1/cmath ****   inline _GLIBCXX_CONSTEXPR long double
 129:/Applications/ARM/arm-none-eabi/include/c++/10.3.1/cmath ****   atan(long double __x)
 130:/Applications/ARM/arm-none-eabi/include/c++/10.3.1/cmath ****   { return __builtin_atanl(__x); }
 131:/Applications/ARM/arm-none-eabi/include/c++/10.3.1/cmath **** #endif
 132:/Applications/ARM/arm-none-eabi/include/c++/10.3.1/cmath **** 
 133:/Applications/ARM/arm-none-eabi/include/c++/10.3.1/cmath ****   template<typename _Tp>
 134:/Applications/ARM/arm-none-eabi/include/c++/10.3.1/cmath ****     inline _GLIBCXX_CONSTEXPR
 135:/Applications/ARM/arm-none-eabi/include/c++/10.3.1/cmath ****     typename __gnu_cxx::__enable_if<__is_integer<_Tp>::__value,
 136:/Applications/ARM/arm-none-eabi/include/c++/10.3.1/cmath ****                                     double>::__type
 137:/Applications/ARM/arm-none-eabi/include/c++/10.3.1/cmath ****     atan(_Tp __x)
 138:/Applications/ARM/arm-none-eabi/include/c++/10.3.1/cmath ****     { return __builtin_atan(__x); }
 139:/Applications/ARM/arm-none-eabi/include/c++/10.3.1/cmath **** 
 140:/Applications/ARM/arm-none-eabi/include/c++/10.3.1/cmath ****   using ::atan2;
 141:/Applications/ARM/arm-none-eabi/include/c++/10.3.1/cmath **** 
 142:/Applications/ARM/arm-none-eabi/include/c++/10.3.1/cmath **** #ifndef __CORRECT_ISO_CPP_MATH_H_PROTO
 143:/Applications/ARM/arm-none-eabi/include/c++/10.3.1/cmath ****   inline _GLIBCXX_CONSTEXPR float
 144:/Applications/ARM/arm-none-eabi/include/c++/10.3.1/cmath ****   atan2(float __y, float __x)
 145:/Applications/ARM/arm-none-eabi/include/c++/10.3.1/cmath ****   { return __builtin_atan2f(__y, __x); }
 146:/Applications/ARM/arm-none-eabi/include/c++/10.3.1/cmath **** 
 147:/Applications/ARM/arm-none-eabi/include/c++/10.3.1/cmath ****   inline _GLIBCXX_CONSTEXPR long double
 148:/Applications/ARM/arm-none-eabi/include/c++/10.3.1/cmath ****   atan2(long double __y, long double __x)
 149:/Applications/ARM/arm-none-eabi/include/c++/10.3.1/cmath ****   { return __builtin_atan2l(__y, __x); }
 150:/Applications/ARM/arm-none-eabi/include/c++/10.3.1/cmath **** #endif
 151:/Applications/ARM/arm-none-eabi/include/c++/10.3.1/cmath **** 
 152:/Applications/ARM/arm-none-eabi/include/c++/10.3.1/cmath ****   template<typename _Tp, typename _Up>
 153:/Applications/ARM/arm-none-eabi/include/c++/10.3.1/cmath ****     inline _GLIBCXX_CONSTEXPR
 154:/Applications/ARM/arm-none-eabi/include/c++/10.3.1/cmath ****     typename __gnu_cxx::__promote_2<_Tp, _Up>::__type
 155:/Applications/ARM/arm-none-eabi/include/c++/10.3.1/cmath ****     atan2(_Tp __y, _Up __x)
ARM GAS  /var/folders/nm/rdtk7lzx1rb7s7p13pzvn_qr0000gn/T//ccdQxqBE.s 			page 37


 156:/Applications/ARM/arm-none-eabi/include/c++/10.3.1/cmath ****     {
 157:/Applications/ARM/arm-none-eabi/include/c++/10.3.1/cmath ****       typedef typename __gnu_cxx::__promote_2<_Tp, _Up>::__type __type;
 158:/Applications/ARM/arm-none-eabi/include/c++/10.3.1/cmath ****       return atan2(__type(__y), __type(__x));
 159:/Applications/ARM/arm-none-eabi/include/c++/10.3.1/cmath ****     }
 160:/Applications/ARM/arm-none-eabi/include/c++/10.3.1/cmath **** 
 161:/Applications/ARM/arm-none-eabi/include/c++/10.3.1/cmath ****   using ::ceil;
 162:/Applications/ARM/arm-none-eabi/include/c++/10.3.1/cmath **** 
 163:/Applications/ARM/arm-none-eabi/include/c++/10.3.1/cmath **** #ifndef __CORRECT_ISO_CPP_MATH_H_PROTO
 164:/Applications/ARM/arm-none-eabi/include/c++/10.3.1/cmath ****   inline _GLIBCXX_CONSTEXPR float
 165:/Applications/ARM/arm-none-eabi/include/c++/10.3.1/cmath ****   ceil(float __x)
 166:/Applications/ARM/arm-none-eabi/include/c++/10.3.1/cmath ****   { return __builtin_ceilf(__x); }
 167:/Applications/ARM/arm-none-eabi/include/c++/10.3.1/cmath **** 
 168:/Applications/ARM/arm-none-eabi/include/c++/10.3.1/cmath ****   inline _GLIBCXX_CONSTEXPR long double
 169:/Applications/ARM/arm-none-eabi/include/c++/10.3.1/cmath ****   ceil(long double __x)
 170:/Applications/ARM/arm-none-eabi/include/c++/10.3.1/cmath ****   { return __builtin_ceill(__x); }
 171:/Applications/ARM/arm-none-eabi/include/c++/10.3.1/cmath **** #endif
 172:/Applications/ARM/arm-none-eabi/include/c++/10.3.1/cmath **** 
 173:/Applications/ARM/arm-none-eabi/include/c++/10.3.1/cmath ****   template<typename _Tp>
 174:/Applications/ARM/arm-none-eabi/include/c++/10.3.1/cmath ****     inline _GLIBCXX_CONSTEXPR
 175:/Applications/ARM/arm-none-eabi/include/c++/10.3.1/cmath ****     typename __gnu_cxx::__enable_if<__is_integer<_Tp>::__value, 
 176:/Applications/ARM/arm-none-eabi/include/c++/10.3.1/cmath ****                                     double>::__type
 177:/Applications/ARM/arm-none-eabi/include/c++/10.3.1/cmath ****     ceil(_Tp __x)
 178:/Applications/ARM/arm-none-eabi/include/c++/10.3.1/cmath ****     { return __builtin_ceil(__x); }
 179:/Applications/ARM/arm-none-eabi/include/c++/10.3.1/cmath **** 
 180:/Applications/ARM/arm-none-eabi/include/c++/10.3.1/cmath ****   using ::cos;
 181:/Applications/ARM/arm-none-eabi/include/c++/10.3.1/cmath **** 
 182:/Applications/ARM/arm-none-eabi/include/c++/10.3.1/cmath **** #ifndef __CORRECT_ISO_CPP_MATH_H_PROTO
 183:/Applications/ARM/arm-none-eabi/include/c++/10.3.1/cmath ****   inline _GLIBCXX_CONSTEXPR float
 184:/Applications/ARM/arm-none-eabi/include/c++/10.3.1/cmath ****   cos(float __x)
 185:/Applications/ARM/arm-none-eabi/include/c++/10.3.1/cmath ****   { return __builtin_cosf(__x); }
 186:/Applications/ARM/arm-none-eabi/include/c++/10.3.1/cmath **** 
 187:/Applications/ARM/arm-none-eabi/include/c++/10.3.1/cmath ****   inline _GLIBCXX_CONSTEXPR long double
 188:/Applications/ARM/arm-none-eabi/include/c++/10.3.1/cmath ****   cos(long double __x)
 189:/Applications/ARM/arm-none-eabi/include/c++/10.3.1/cmath ****   { return __builtin_cosl(__x); }
 190:/Applications/ARM/arm-none-eabi/include/c++/10.3.1/cmath **** #endif
 191:/Applications/ARM/arm-none-eabi/include/c++/10.3.1/cmath **** 
 192:/Applications/ARM/arm-none-eabi/include/c++/10.3.1/cmath ****   template<typename _Tp>
 193:/Applications/ARM/arm-none-eabi/include/c++/10.3.1/cmath ****     inline _GLIBCXX_CONSTEXPR
 194:/Applications/ARM/arm-none-eabi/include/c++/10.3.1/cmath ****     typename __gnu_cxx::__enable_if<__is_integer<_Tp>::__value,
 195:/Applications/ARM/arm-none-eabi/include/c++/10.3.1/cmath ****                                     double>::__type
 196:/Applications/ARM/arm-none-eabi/include/c++/10.3.1/cmath ****     cos(_Tp __x)
 197:/Applications/ARM/arm-none-eabi/include/c++/10.3.1/cmath ****     { return __builtin_cos(__x); }
 198:/Applications/ARM/arm-none-eabi/include/c++/10.3.1/cmath **** 
 199:/Applications/ARM/arm-none-eabi/include/c++/10.3.1/cmath ****   using ::cosh;
 200:/Applications/ARM/arm-none-eabi/include/c++/10.3.1/cmath **** 
 201:/Applications/ARM/arm-none-eabi/include/c++/10.3.1/cmath **** #ifndef __CORRECT_ISO_CPP_MATH_H_PROTO
 202:/Applications/ARM/arm-none-eabi/include/c++/10.3.1/cmath ****   inline _GLIBCXX_CONSTEXPR float
 203:/Applications/ARM/arm-none-eabi/include/c++/10.3.1/cmath ****   cosh(float __x)
 204:/Applications/ARM/arm-none-eabi/include/c++/10.3.1/cmath ****   { return __builtin_coshf(__x); }
 205:/Applications/ARM/arm-none-eabi/include/c++/10.3.1/cmath **** 
 206:/Applications/ARM/arm-none-eabi/include/c++/10.3.1/cmath ****   inline _GLIBCXX_CONSTEXPR long double
 207:/Applications/ARM/arm-none-eabi/include/c++/10.3.1/cmath ****   cosh(long double __x)
 208:/Applications/ARM/arm-none-eabi/include/c++/10.3.1/cmath ****   { return __builtin_coshl(__x); }
 209:/Applications/ARM/arm-none-eabi/include/c++/10.3.1/cmath **** #endif
 210:/Applications/ARM/arm-none-eabi/include/c++/10.3.1/cmath **** 
 211:/Applications/ARM/arm-none-eabi/include/c++/10.3.1/cmath ****   template<typename _Tp>
 212:/Applications/ARM/arm-none-eabi/include/c++/10.3.1/cmath ****     inline _GLIBCXX_CONSTEXPR
ARM GAS  /var/folders/nm/rdtk7lzx1rb7s7p13pzvn_qr0000gn/T//ccdQxqBE.s 			page 38


 213:/Applications/ARM/arm-none-eabi/include/c++/10.3.1/cmath ****     typename __gnu_cxx::__enable_if<__is_integer<_Tp>::__value,
 214:/Applications/ARM/arm-none-eabi/include/c++/10.3.1/cmath ****                                     double>::__type
 215:/Applications/ARM/arm-none-eabi/include/c++/10.3.1/cmath ****     cosh(_Tp __x)
 216:/Applications/ARM/arm-none-eabi/include/c++/10.3.1/cmath ****     { return __builtin_cosh(__x); }
 217:/Applications/ARM/arm-none-eabi/include/c++/10.3.1/cmath **** 
 218:/Applications/ARM/arm-none-eabi/include/c++/10.3.1/cmath ****   using ::exp;
 219:/Applications/ARM/arm-none-eabi/include/c++/10.3.1/cmath **** 
 220:/Applications/ARM/arm-none-eabi/include/c++/10.3.1/cmath **** #ifndef __CORRECT_ISO_CPP_MATH_H_PROTO
 221:/Applications/ARM/arm-none-eabi/include/c++/10.3.1/cmath ****   inline _GLIBCXX_CONSTEXPR float
 222:/Applications/ARM/arm-none-eabi/include/c++/10.3.1/cmath ****   exp(float __x)
 223:/Applications/ARM/arm-none-eabi/include/c++/10.3.1/cmath ****   { return __builtin_expf(__x); }
 224:/Applications/ARM/arm-none-eabi/include/c++/10.3.1/cmath **** 
 225:/Applications/ARM/arm-none-eabi/include/c++/10.3.1/cmath ****   inline _GLIBCXX_CONSTEXPR long double
 226:/Applications/ARM/arm-none-eabi/include/c++/10.3.1/cmath ****   exp(long double __x)
 227:/Applications/ARM/arm-none-eabi/include/c++/10.3.1/cmath ****   { return __builtin_expl(__x); }
 228:/Applications/ARM/arm-none-eabi/include/c++/10.3.1/cmath **** #endif
 229:/Applications/ARM/arm-none-eabi/include/c++/10.3.1/cmath **** 
 230:/Applications/ARM/arm-none-eabi/include/c++/10.3.1/cmath ****   template<typename _Tp>
 231:/Applications/ARM/arm-none-eabi/include/c++/10.3.1/cmath ****     inline _GLIBCXX_CONSTEXPR
 232:/Applications/ARM/arm-none-eabi/include/c++/10.3.1/cmath ****     typename __gnu_cxx::__enable_if<__is_integer<_Tp>::__value,
 233:/Applications/ARM/arm-none-eabi/include/c++/10.3.1/cmath ****                                     double>::__type
 234:/Applications/ARM/arm-none-eabi/include/c++/10.3.1/cmath ****     exp(_Tp __x)
 235:/Applications/ARM/arm-none-eabi/include/c++/10.3.1/cmath ****     { return __builtin_exp(__x); }
 236:/Applications/ARM/arm-none-eabi/include/c++/10.3.1/cmath **** 
 237:/Applications/ARM/arm-none-eabi/include/c++/10.3.1/cmath ****   using ::fabs;
 238:/Applications/ARM/arm-none-eabi/include/c++/10.3.1/cmath **** 
 239:/Applications/ARM/arm-none-eabi/include/c++/10.3.1/cmath **** #ifndef __CORRECT_ISO_CPP_MATH_H_PROTO
 240:/Applications/ARM/arm-none-eabi/include/c++/10.3.1/cmath ****   inline _GLIBCXX_CONSTEXPR float
 241:/Applications/ARM/arm-none-eabi/include/c++/10.3.1/cmath ****   fabs(float __x)
 242:/Applications/ARM/arm-none-eabi/include/c++/10.3.1/cmath ****   { return __builtin_fabsf(__x); }
 243:/Applications/ARM/arm-none-eabi/include/c++/10.3.1/cmath **** 
 244:/Applications/ARM/arm-none-eabi/include/c++/10.3.1/cmath ****   inline _GLIBCXX_CONSTEXPR long double
 245:/Applications/ARM/arm-none-eabi/include/c++/10.3.1/cmath ****   fabs(long double __x)
 246:/Applications/ARM/arm-none-eabi/include/c++/10.3.1/cmath ****   { return __builtin_fabsl(__x); }
 247:/Applications/ARM/arm-none-eabi/include/c++/10.3.1/cmath **** #endif
 248:/Applications/ARM/arm-none-eabi/include/c++/10.3.1/cmath **** 
 249:/Applications/ARM/arm-none-eabi/include/c++/10.3.1/cmath ****   template<typename _Tp>
 250:/Applications/ARM/arm-none-eabi/include/c++/10.3.1/cmath ****     inline _GLIBCXX_CONSTEXPR
 251:/Applications/ARM/arm-none-eabi/include/c++/10.3.1/cmath ****     typename __gnu_cxx::__enable_if<__is_integer<_Tp>::__value,
 252:/Applications/ARM/arm-none-eabi/include/c++/10.3.1/cmath ****                                     double>::__type
 253:/Applications/ARM/arm-none-eabi/include/c++/10.3.1/cmath ****     fabs(_Tp __x)
 254:/Applications/ARM/arm-none-eabi/include/c++/10.3.1/cmath ****     { return __builtin_fabs(__x); }
 255:/Applications/ARM/arm-none-eabi/include/c++/10.3.1/cmath **** 
 256:/Applications/ARM/arm-none-eabi/include/c++/10.3.1/cmath ****   using ::floor;
 257:/Applications/ARM/arm-none-eabi/include/c++/10.3.1/cmath **** 
 258:/Applications/ARM/arm-none-eabi/include/c++/10.3.1/cmath **** #ifndef __CORRECT_ISO_CPP_MATH_H_PROTO
 259:/Applications/ARM/arm-none-eabi/include/c++/10.3.1/cmath ****   inline _GLIBCXX_CONSTEXPR float
 260:/Applications/ARM/arm-none-eabi/include/c++/10.3.1/cmath ****   floor(float __x)
 261:/Applications/ARM/arm-none-eabi/include/c++/10.3.1/cmath ****   { return __builtin_floorf(__x); }
 262:/Applications/ARM/arm-none-eabi/include/c++/10.3.1/cmath **** 
 263:/Applications/ARM/arm-none-eabi/include/c++/10.3.1/cmath ****   inline _GLIBCXX_CONSTEXPR long double
 264:/Applications/ARM/arm-none-eabi/include/c++/10.3.1/cmath ****   floor(long double __x)
 265:/Applications/ARM/arm-none-eabi/include/c++/10.3.1/cmath ****   { return __builtin_floorl(__x); }
 266:/Applications/ARM/arm-none-eabi/include/c++/10.3.1/cmath **** #endif
 267:/Applications/ARM/arm-none-eabi/include/c++/10.3.1/cmath **** 
 268:/Applications/ARM/arm-none-eabi/include/c++/10.3.1/cmath ****   template<typename _Tp>
 269:/Applications/ARM/arm-none-eabi/include/c++/10.3.1/cmath ****     inline _GLIBCXX_CONSTEXPR
ARM GAS  /var/folders/nm/rdtk7lzx1rb7s7p13pzvn_qr0000gn/T//ccdQxqBE.s 			page 39


 270:/Applications/ARM/arm-none-eabi/include/c++/10.3.1/cmath ****     typename __gnu_cxx::__enable_if<__is_integer<_Tp>::__value,
 271:/Applications/ARM/arm-none-eabi/include/c++/10.3.1/cmath ****                                     double>::__type
 272:/Applications/ARM/arm-none-eabi/include/c++/10.3.1/cmath ****     floor(_Tp __x)
 273:/Applications/ARM/arm-none-eabi/include/c++/10.3.1/cmath ****     { return __builtin_floor(__x); }
 274:/Applications/ARM/arm-none-eabi/include/c++/10.3.1/cmath **** 
 275:/Applications/ARM/arm-none-eabi/include/c++/10.3.1/cmath ****   using ::fmod;
 276:/Applications/ARM/arm-none-eabi/include/c++/10.3.1/cmath **** 
 277:/Applications/ARM/arm-none-eabi/include/c++/10.3.1/cmath **** #ifndef __CORRECT_ISO_CPP_MATH_H_PROTO
 278:/Applications/ARM/arm-none-eabi/include/c++/10.3.1/cmath ****   inline _GLIBCXX_CONSTEXPR float
 279:/Applications/ARM/arm-none-eabi/include/c++/10.3.1/cmath ****   fmod(float __x, float __y)
 280:/Applications/ARM/arm-none-eabi/include/c++/10.3.1/cmath ****   { return __builtin_fmodf(__x, __y); }
 281:/Applications/ARM/arm-none-eabi/include/c++/10.3.1/cmath **** 
 282:/Applications/ARM/arm-none-eabi/include/c++/10.3.1/cmath ****   inline _GLIBCXX_CONSTEXPR long double
 283:/Applications/ARM/arm-none-eabi/include/c++/10.3.1/cmath ****   fmod(long double __x, long double __y)
 284:/Applications/ARM/arm-none-eabi/include/c++/10.3.1/cmath ****   { return __builtin_fmodl(__x, __y); }
 285:/Applications/ARM/arm-none-eabi/include/c++/10.3.1/cmath **** #endif
 286:/Applications/ARM/arm-none-eabi/include/c++/10.3.1/cmath **** 
 287:/Applications/ARM/arm-none-eabi/include/c++/10.3.1/cmath ****   template<typename _Tp, typename _Up>
 288:/Applications/ARM/arm-none-eabi/include/c++/10.3.1/cmath ****     inline _GLIBCXX_CONSTEXPR
 289:/Applications/ARM/arm-none-eabi/include/c++/10.3.1/cmath ****     typename __gnu_cxx::__promote_2<_Tp, _Up>::__type
 290:/Applications/ARM/arm-none-eabi/include/c++/10.3.1/cmath ****     fmod(_Tp __x, _Up __y)
 291:/Applications/ARM/arm-none-eabi/include/c++/10.3.1/cmath ****     {
 292:/Applications/ARM/arm-none-eabi/include/c++/10.3.1/cmath ****       typedef typename __gnu_cxx::__promote_2<_Tp, _Up>::__type __type;
 293:/Applications/ARM/arm-none-eabi/include/c++/10.3.1/cmath ****       return fmod(__type(__x), __type(__y));
 294:/Applications/ARM/arm-none-eabi/include/c++/10.3.1/cmath ****     }
 295:/Applications/ARM/arm-none-eabi/include/c++/10.3.1/cmath **** 
 296:/Applications/ARM/arm-none-eabi/include/c++/10.3.1/cmath ****   using ::frexp;
 297:/Applications/ARM/arm-none-eabi/include/c++/10.3.1/cmath **** 
 298:/Applications/ARM/arm-none-eabi/include/c++/10.3.1/cmath **** #ifndef __CORRECT_ISO_CPP_MATH_H_PROTO
 299:/Applications/ARM/arm-none-eabi/include/c++/10.3.1/cmath ****   inline float
 300:/Applications/ARM/arm-none-eabi/include/c++/10.3.1/cmath ****   frexp(float __x, int* __exp)
 301:/Applications/ARM/arm-none-eabi/include/c++/10.3.1/cmath ****   { return __builtin_frexpf(__x, __exp); }
 302:/Applications/ARM/arm-none-eabi/include/c++/10.3.1/cmath **** 
 303:/Applications/ARM/arm-none-eabi/include/c++/10.3.1/cmath ****   inline long double
 304:/Applications/ARM/arm-none-eabi/include/c++/10.3.1/cmath ****   frexp(long double __x, int* __exp)
 305:/Applications/ARM/arm-none-eabi/include/c++/10.3.1/cmath ****   { return __builtin_frexpl(__x, __exp); }
 306:/Applications/ARM/arm-none-eabi/include/c++/10.3.1/cmath **** #endif
 307:/Applications/ARM/arm-none-eabi/include/c++/10.3.1/cmath **** 
 308:/Applications/ARM/arm-none-eabi/include/c++/10.3.1/cmath ****   template<typename _Tp>
 309:/Applications/ARM/arm-none-eabi/include/c++/10.3.1/cmath ****     inline _GLIBCXX_CONSTEXPR
 310:/Applications/ARM/arm-none-eabi/include/c++/10.3.1/cmath ****     typename __gnu_cxx::__enable_if<__is_integer<_Tp>::__value, 
 311:/Applications/ARM/arm-none-eabi/include/c++/10.3.1/cmath ****                                     double>::__type
 312:/Applications/ARM/arm-none-eabi/include/c++/10.3.1/cmath ****     frexp(_Tp __x, int* __exp)
 313:/Applications/ARM/arm-none-eabi/include/c++/10.3.1/cmath ****     { return __builtin_frexp(__x, __exp); }
 314:/Applications/ARM/arm-none-eabi/include/c++/10.3.1/cmath **** 
 315:/Applications/ARM/arm-none-eabi/include/c++/10.3.1/cmath ****   using ::ldexp;
 316:/Applications/ARM/arm-none-eabi/include/c++/10.3.1/cmath **** 
 317:/Applications/ARM/arm-none-eabi/include/c++/10.3.1/cmath **** #ifndef __CORRECT_ISO_CPP_MATH_H_PROTO
 318:/Applications/ARM/arm-none-eabi/include/c++/10.3.1/cmath ****   inline _GLIBCXX_CONSTEXPR float
 319:/Applications/ARM/arm-none-eabi/include/c++/10.3.1/cmath ****   ldexp(float __x, int __exp)
 320:/Applications/ARM/arm-none-eabi/include/c++/10.3.1/cmath ****   { return __builtin_ldexpf(__x, __exp); }
 321:/Applications/ARM/arm-none-eabi/include/c++/10.3.1/cmath **** 
 322:/Applications/ARM/arm-none-eabi/include/c++/10.3.1/cmath ****   inline _GLIBCXX_CONSTEXPR long double
 323:/Applications/ARM/arm-none-eabi/include/c++/10.3.1/cmath ****   ldexp(long double __x, int __exp)
 324:/Applications/ARM/arm-none-eabi/include/c++/10.3.1/cmath ****   { return __builtin_ldexpl(__x, __exp); }
 325:/Applications/ARM/arm-none-eabi/include/c++/10.3.1/cmath **** #endif
 326:/Applications/ARM/arm-none-eabi/include/c++/10.3.1/cmath **** 
ARM GAS  /var/folders/nm/rdtk7lzx1rb7s7p13pzvn_qr0000gn/T//ccdQxqBE.s 			page 40


 327:/Applications/ARM/arm-none-eabi/include/c++/10.3.1/cmath ****   template<typename _Tp>
 328:/Applications/ARM/arm-none-eabi/include/c++/10.3.1/cmath ****     inline _GLIBCXX_CONSTEXPR
 329:/Applications/ARM/arm-none-eabi/include/c++/10.3.1/cmath ****     typename __gnu_cxx::__enable_if<__is_integer<_Tp>::__value, 
 330:/Applications/ARM/arm-none-eabi/include/c++/10.3.1/cmath ****                                     double>::__type
 331:/Applications/ARM/arm-none-eabi/include/c++/10.3.1/cmath ****     ldexp(_Tp __x, int __exp)
 332:/Applications/ARM/arm-none-eabi/include/c++/10.3.1/cmath ****     { return __builtin_ldexp(__x, __exp); }
 333:/Applications/ARM/arm-none-eabi/include/c++/10.3.1/cmath **** 
 334:/Applications/ARM/arm-none-eabi/include/c++/10.3.1/cmath ****   using ::log;
 335:/Applications/ARM/arm-none-eabi/include/c++/10.3.1/cmath **** 
 336:/Applications/ARM/arm-none-eabi/include/c++/10.3.1/cmath **** #ifndef __CORRECT_ISO_CPP_MATH_H_PROTO
 337:/Applications/ARM/arm-none-eabi/include/c++/10.3.1/cmath ****   inline _GLIBCXX_CONSTEXPR float
 338:/Applications/ARM/arm-none-eabi/include/c++/10.3.1/cmath ****   log(float __x)
 339:/Applications/ARM/arm-none-eabi/include/c++/10.3.1/cmath ****   { return __builtin_logf(__x); }
 340:/Applications/ARM/arm-none-eabi/include/c++/10.3.1/cmath **** 
 341:/Applications/ARM/arm-none-eabi/include/c++/10.3.1/cmath ****   inline _GLIBCXX_CONSTEXPR long double
 342:/Applications/ARM/arm-none-eabi/include/c++/10.3.1/cmath ****   log(long double __x)
 343:/Applications/ARM/arm-none-eabi/include/c++/10.3.1/cmath ****   { return __builtin_logl(__x); }
 344:/Applications/ARM/arm-none-eabi/include/c++/10.3.1/cmath **** #endif
 345:/Applications/ARM/arm-none-eabi/include/c++/10.3.1/cmath **** 
 346:/Applications/ARM/arm-none-eabi/include/c++/10.3.1/cmath ****   template<typename _Tp>
 347:/Applications/ARM/arm-none-eabi/include/c++/10.3.1/cmath ****     inline _GLIBCXX_CONSTEXPR
 348:/Applications/ARM/arm-none-eabi/include/c++/10.3.1/cmath ****     typename __gnu_cxx::__enable_if<__is_integer<_Tp>::__value, 
 349:/Applications/ARM/arm-none-eabi/include/c++/10.3.1/cmath ****                                     double>::__type
 350:/Applications/ARM/arm-none-eabi/include/c++/10.3.1/cmath ****     log(_Tp __x)
 351:/Applications/ARM/arm-none-eabi/include/c++/10.3.1/cmath ****     { return __builtin_log(__x); }
 352:/Applications/ARM/arm-none-eabi/include/c++/10.3.1/cmath **** 
 353:/Applications/ARM/arm-none-eabi/include/c++/10.3.1/cmath ****   using ::log10;
 354:/Applications/ARM/arm-none-eabi/include/c++/10.3.1/cmath **** 
 355:/Applications/ARM/arm-none-eabi/include/c++/10.3.1/cmath **** #ifndef __CORRECT_ISO_CPP_MATH_H_PROTO
 356:/Applications/ARM/arm-none-eabi/include/c++/10.3.1/cmath ****   inline _GLIBCXX_CONSTEXPR float
 357:/Applications/ARM/arm-none-eabi/include/c++/10.3.1/cmath ****   log10(float __x)
 358:/Applications/ARM/arm-none-eabi/include/c++/10.3.1/cmath ****   { return __builtin_log10f(__x); }
 359:/Applications/ARM/arm-none-eabi/include/c++/10.3.1/cmath **** 
 360:/Applications/ARM/arm-none-eabi/include/c++/10.3.1/cmath ****   inline _GLIBCXX_CONSTEXPR long double
 361:/Applications/ARM/arm-none-eabi/include/c++/10.3.1/cmath ****   log10(long double __x)
 362:/Applications/ARM/arm-none-eabi/include/c++/10.3.1/cmath ****   { return __builtin_log10l(__x); }
 363:/Applications/ARM/arm-none-eabi/include/c++/10.3.1/cmath **** #endif
 364:/Applications/ARM/arm-none-eabi/include/c++/10.3.1/cmath **** 
 365:/Applications/ARM/arm-none-eabi/include/c++/10.3.1/cmath ****   template<typename _Tp>
 366:/Applications/ARM/arm-none-eabi/include/c++/10.3.1/cmath ****     inline _GLIBCXX_CONSTEXPR
 367:/Applications/ARM/arm-none-eabi/include/c++/10.3.1/cmath ****     typename __gnu_cxx::__enable_if<__is_integer<_Tp>::__value,
 368:/Applications/ARM/arm-none-eabi/include/c++/10.3.1/cmath ****                                     double>::__type
 369:/Applications/ARM/arm-none-eabi/include/c++/10.3.1/cmath ****     log10(_Tp __x)
 370:/Applications/ARM/arm-none-eabi/include/c++/10.3.1/cmath ****     { return __builtin_log10(__x); }
 371:/Applications/ARM/arm-none-eabi/include/c++/10.3.1/cmath **** 
 372:/Applications/ARM/arm-none-eabi/include/c++/10.3.1/cmath ****   using ::modf;
 373:/Applications/ARM/arm-none-eabi/include/c++/10.3.1/cmath **** 
 374:/Applications/ARM/arm-none-eabi/include/c++/10.3.1/cmath **** #ifndef __CORRECT_ISO_CPP_MATH_H_PROTO
 375:/Applications/ARM/arm-none-eabi/include/c++/10.3.1/cmath ****   inline float
 376:/Applications/ARM/arm-none-eabi/include/c++/10.3.1/cmath ****   modf(float __x, float* __iptr)
 377:/Applications/ARM/arm-none-eabi/include/c++/10.3.1/cmath ****   { return __builtin_modff(__x, __iptr); }
 378:/Applications/ARM/arm-none-eabi/include/c++/10.3.1/cmath **** 
 379:/Applications/ARM/arm-none-eabi/include/c++/10.3.1/cmath ****   inline long double
 380:/Applications/ARM/arm-none-eabi/include/c++/10.3.1/cmath ****   modf(long double __x, long double* __iptr)
 381:/Applications/ARM/arm-none-eabi/include/c++/10.3.1/cmath ****   { return __builtin_modfl(__x, __iptr); }
 382:/Applications/ARM/arm-none-eabi/include/c++/10.3.1/cmath **** #endif
 383:/Applications/ARM/arm-none-eabi/include/c++/10.3.1/cmath **** 
ARM GAS  /var/folders/nm/rdtk7lzx1rb7s7p13pzvn_qr0000gn/T//ccdQxqBE.s 			page 41


 384:/Applications/ARM/arm-none-eabi/include/c++/10.3.1/cmath ****   using ::pow;
 385:/Applications/ARM/arm-none-eabi/include/c++/10.3.1/cmath **** 
 386:/Applications/ARM/arm-none-eabi/include/c++/10.3.1/cmath **** #ifndef __CORRECT_ISO_CPP_MATH_H_PROTO
 387:/Applications/ARM/arm-none-eabi/include/c++/10.3.1/cmath ****   inline _GLIBCXX_CONSTEXPR float
 388:/Applications/ARM/arm-none-eabi/include/c++/10.3.1/cmath ****   pow(float __x, float __y)
 389:/Applications/ARM/arm-none-eabi/include/c++/10.3.1/cmath ****   { return __builtin_powf(__x, __y); }
 390:/Applications/ARM/arm-none-eabi/include/c++/10.3.1/cmath **** 
 391:/Applications/ARM/arm-none-eabi/include/c++/10.3.1/cmath ****   inline _GLIBCXX_CONSTEXPR long double
 392:/Applications/ARM/arm-none-eabi/include/c++/10.3.1/cmath ****   pow(long double __x, long double __y)
 393:/Applications/ARM/arm-none-eabi/include/c++/10.3.1/cmath ****   { return __builtin_powl(__x, __y); }
 394:/Applications/ARM/arm-none-eabi/include/c++/10.3.1/cmath **** 
 395:/Applications/ARM/arm-none-eabi/include/c++/10.3.1/cmath **** #if __cplusplus < 201103L
 396:/Applications/ARM/arm-none-eabi/include/c++/10.3.1/cmath ****   // _GLIBCXX_RESOLVE_LIB_DEFECTS
 397:/Applications/ARM/arm-none-eabi/include/c++/10.3.1/cmath ****   // DR 550. What should the return type of pow(float,int) be?
 398:/Applications/ARM/arm-none-eabi/include/c++/10.3.1/cmath ****   inline double
 399:/Applications/ARM/arm-none-eabi/include/c++/10.3.1/cmath ****   pow(double __x, int __i)
 400:/Applications/ARM/arm-none-eabi/include/c++/10.3.1/cmath ****   { return __builtin_powi(__x, __i); }
 401:/Applications/ARM/arm-none-eabi/include/c++/10.3.1/cmath **** 
 402:/Applications/ARM/arm-none-eabi/include/c++/10.3.1/cmath ****   inline float
 403:/Applications/ARM/arm-none-eabi/include/c++/10.3.1/cmath ****   pow(float __x, int __n)
 404:/Applications/ARM/arm-none-eabi/include/c++/10.3.1/cmath ****   { return __builtin_powif(__x, __n); }
 405:/Applications/ARM/arm-none-eabi/include/c++/10.3.1/cmath **** 
 406:/Applications/ARM/arm-none-eabi/include/c++/10.3.1/cmath ****   inline long double
 407:/Applications/ARM/arm-none-eabi/include/c++/10.3.1/cmath ****   pow(long double __x, int __n)
 408:/Applications/ARM/arm-none-eabi/include/c++/10.3.1/cmath ****   { return __builtin_powil(__x, __n); }
 409:/Applications/ARM/arm-none-eabi/include/c++/10.3.1/cmath **** #endif
 410:/Applications/ARM/arm-none-eabi/include/c++/10.3.1/cmath **** #endif
 411:/Applications/ARM/arm-none-eabi/include/c++/10.3.1/cmath **** 
 412:/Applications/ARM/arm-none-eabi/include/c++/10.3.1/cmath ****   template<typename _Tp, typename _Up>
 413:/Applications/ARM/arm-none-eabi/include/c++/10.3.1/cmath ****     inline _GLIBCXX_CONSTEXPR
 414:/Applications/ARM/arm-none-eabi/include/c++/10.3.1/cmath ****     typename __gnu_cxx::__promote_2<_Tp, _Up>::__type
 415:/Applications/ARM/arm-none-eabi/include/c++/10.3.1/cmath ****     pow(_Tp __x, _Up __y)
 416:/Applications/ARM/arm-none-eabi/include/c++/10.3.1/cmath ****     {
 417:/Applications/ARM/arm-none-eabi/include/c++/10.3.1/cmath ****       typedef typename __gnu_cxx::__promote_2<_Tp, _Up>::__type __type;
 418:/Applications/ARM/arm-none-eabi/include/c++/10.3.1/cmath ****       return pow(__type(__x), __type(__y));
 419:/Applications/ARM/arm-none-eabi/include/c++/10.3.1/cmath ****     }
 420:/Applications/ARM/arm-none-eabi/include/c++/10.3.1/cmath **** 
 421:/Applications/ARM/arm-none-eabi/include/c++/10.3.1/cmath ****   using ::sin;
 422:/Applications/ARM/arm-none-eabi/include/c++/10.3.1/cmath **** 
 423:/Applications/ARM/arm-none-eabi/include/c++/10.3.1/cmath **** #ifndef __CORRECT_ISO_CPP_MATH_H_PROTO
 424:/Applications/ARM/arm-none-eabi/include/c++/10.3.1/cmath ****   inline _GLIBCXX_CONSTEXPR float
 425:/Applications/ARM/arm-none-eabi/include/c++/10.3.1/cmath ****   sin(float __x)
 426:/Applications/ARM/arm-none-eabi/include/c++/10.3.1/cmath ****   { return __builtin_sinf(__x); }
 427:/Applications/ARM/arm-none-eabi/include/c++/10.3.1/cmath **** 
 428:/Applications/ARM/arm-none-eabi/include/c++/10.3.1/cmath ****   inline _GLIBCXX_CONSTEXPR long double
 429:/Applications/ARM/arm-none-eabi/include/c++/10.3.1/cmath ****   sin(long double __x)
 430:/Applications/ARM/arm-none-eabi/include/c++/10.3.1/cmath ****   { return __builtin_sinl(__x); }
 431:/Applications/ARM/arm-none-eabi/include/c++/10.3.1/cmath **** #endif
 432:/Applications/ARM/arm-none-eabi/include/c++/10.3.1/cmath **** 
 433:/Applications/ARM/arm-none-eabi/include/c++/10.3.1/cmath ****   template<typename _Tp>
 434:/Applications/ARM/arm-none-eabi/include/c++/10.3.1/cmath ****     inline _GLIBCXX_CONSTEXPR
 435:/Applications/ARM/arm-none-eabi/include/c++/10.3.1/cmath ****     typename __gnu_cxx::__enable_if<__is_integer<_Tp>::__value, 
 436:/Applications/ARM/arm-none-eabi/include/c++/10.3.1/cmath ****                                     double>::__type
 437:/Applications/ARM/arm-none-eabi/include/c++/10.3.1/cmath ****     sin(_Tp __x)
 438:/Applications/ARM/arm-none-eabi/include/c++/10.3.1/cmath ****     { return __builtin_sin(__x); }
 439:/Applications/ARM/arm-none-eabi/include/c++/10.3.1/cmath **** 
 440:/Applications/ARM/arm-none-eabi/include/c++/10.3.1/cmath ****   using ::sinh;
ARM GAS  /var/folders/nm/rdtk7lzx1rb7s7p13pzvn_qr0000gn/T//ccdQxqBE.s 			page 42


 441:/Applications/ARM/arm-none-eabi/include/c++/10.3.1/cmath **** 
 442:/Applications/ARM/arm-none-eabi/include/c++/10.3.1/cmath **** #ifndef __CORRECT_ISO_CPP_MATH_H_PROTO
 443:/Applications/ARM/arm-none-eabi/include/c++/10.3.1/cmath ****   inline _GLIBCXX_CONSTEXPR float
 444:/Applications/ARM/arm-none-eabi/include/c++/10.3.1/cmath ****   sinh(float __x)
 445:/Applications/ARM/arm-none-eabi/include/c++/10.3.1/cmath ****   { return __builtin_sinhf(__x); }
 446:/Applications/ARM/arm-none-eabi/include/c++/10.3.1/cmath **** 
 447:/Applications/ARM/arm-none-eabi/include/c++/10.3.1/cmath ****   inline _GLIBCXX_CONSTEXPR long double
 448:/Applications/ARM/arm-none-eabi/include/c++/10.3.1/cmath ****   sinh(long double __x)
 449:/Applications/ARM/arm-none-eabi/include/c++/10.3.1/cmath ****   { return __builtin_sinhl(__x); }
 450:/Applications/ARM/arm-none-eabi/include/c++/10.3.1/cmath **** #endif
 451:/Applications/ARM/arm-none-eabi/include/c++/10.3.1/cmath **** 
 452:/Applications/ARM/arm-none-eabi/include/c++/10.3.1/cmath ****   template<typename _Tp>
 453:/Applications/ARM/arm-none-eabi/include/c++/10.3.1/cmath ****     inline _GLIBCXX_CONSTEXPR
 454:/Applications/ARM/arm-none-eabi/include/c++/10.3.1/cmath ****     typename __gnu_cxx::__enable_if<__is_integer<_Tp>::__value, 
 455:/Applications/ARM/arm-none-eabi/include/c++/10.3.1/cmath ****                                     double>::__type
 456:/Applications/ARM/arm-none-eabi/include/c++/10.3.1/cmath ****     sinh(_Tp __x)
 457:/Applications/ARM/arm-none-eabi/include/c++/10.3.1/cmath ****     { return __builtin_sinh(__x); }
 458:/Applications/ARM/arm-none-eabi/include/c++/10.3.1/cmath **** 
 459:/Applications/ARM/arm-none-eabi/include/c++/10.3.1/cmath ****   using ::sqrt;
 460:/Applications/ARM/arm-none-eabi/include/c++/10.3.1/cmath **** 
 461:/Applications/ARM/arm-none-eabi/include/c++/10.3.1/cmath **** #ifndef __CORRECT_ISO_CPP_MATH_H_PROTO
 462:/Applications/ARM/arm-none-eabi/include/c++/10.3.1/cmath ****   inline _GLIBCXX_CONSTEXPR float
 463:/Applications/ARM/arm-none-eabi/include/c++/10.3.1/cmath ****   sqrt(float __x)
 464:/Applications/ARM/arm-none-eabi/include/c++/10.3.1/cmath ****   { return __builtin_sqrtf(__x); }
 465:/Applications/ARM/arm-none-eabi/include/c++/10.3.1/cmath **** 
 466:/Applications/ARM/arm-none-eabi/include/c++/10.3.1/cmath ****   inline _GLIBCXX_CONSTEXPR long double
 467:/Applications/ARM/arm-none-eabi/include/c++/10.3.1/cmath ****   sqrt(long double __x)
 468:/Applications/ARM/arm-none-eabi/include/c++/10.3.1/cmath ****   { return __builtin_sqrtl(__x); }
 469:/Applications/ARM/arm-none-eabi/include/c++/10.3.1/cmath **** #endif
 470:/Applications/ARM/arm-none-eabi/include/c++/10.3.1/cmath **** 
 471:/Applications/ARM/arm-none-eabi/include/c++/10.3.1/cmath ****   template<typename _Tp>
 472:/Applications/ARM/arm-none-eabi/include/c++/10.3.1/cmath ****     inline _GLIBCXX_CONSTEXPR
 473:/Applications/ARM/arm-none-eabi/include/c++/10.3.1/cmath ****     typename __gnu_cxx::__enable_if<__is_integer<_Tp>::__value, 
 474:/Applications/ARM/arm-none-eabi/include/c++/10.3.1/cmath ****                                     double>::__type
 475:/Applications/ARM/arm-none-eabi/include/c++/10.3.1/cmath ****     sqrt(_Tp __x)
 476:/Applications/ARM/arm-none-eabi/include/c++/10.3.1/cmath ****     { return __builtin_sqrt(__x); }
 477:/Applications/ARM/arm-none-eabi/include/c++/10.3.1/cmath **** 
 478:/Applications/ARM/arm-none-eabi/include/c++/10.3.1/cmath ****   using ::tan;
 479:/Applications/ARM/arm-none-eabi/include/c++/10.3.1/cmath **** 
 480:/Applications/ARM/arm-none-eabi/include/c++/10.3.1/cmath **** #ifndef __CORRECT_ISO_CPP_MATH_H_PROTO
 481:/Applications/ARM/arm-none-eabi/include/c++/10.3.1/cmath ****   inline _GLIBCXX_CONSTEXPR float
 482:/Applications/ARM/arm-none-eabi/include/c++/10.3.1/cmath ****   tan(float __x)
 483:/Applications/ARM/arm-none-eabi/include/c++/10.3.1/cmath ****   { return __builtin_tanf(__x); }
 484:/Applications/ARM/arm-none-eabi/include/c++/10.3.1/cmath **** 
 485:/Applications/ARM/arm-none-eabi/include/c++/10.3.1/cmath ****   inline _GLIBCXX_CONSTEXPR long double
 486:/Applications/ARM/arm-none-eabi/include/c++/10.3.1/cmath ****   tan(long double __x)
 487:/Applications/ARM/arm-none-eabi/include/c++/10.3.1/cmath ****   { return __builtin_tanl(__x); }
 488:/Applications/ARM/arm-none-eabi/include/c++/10.3.1/cmath **** #endif
 489:/Applications/ARM/arm-none-eabi/include/c++/10.3.1/cmath **** 
 490:/Applications/ARM/arm-none-eabi/include/c++/10.3.1/cmath ****   template<typename _Tp>
 491:/Applications/ARM/arm-none-eabi/include/c++/10.3.1/cmath ****     inline _GLIBCXX_CONSTEXPR
 492:/Applications/ARM/arm-none-eabi/include/c++/10.3.1/cmath ****     typename __gnu_cxx::__enable_if<__is_integer<_Tp>::__value, 
 493:/Applications/ARM/arm-none-eabi/include/c++/10.3.1/cmath ****                                     double>::__type
 494:/Applications/ARM/arm-none-eabi/include/c++/10.3.1/cmath ****     tan(_Tp __x)
 495:/Applications/ARM/arm-none-eabi/include/c++/10.3.1/cmath ****     { return __builtin_tan(__x); }
 496:/Applications/ARM/arm-none-eabi/include/c++/10.3.1/cmath **** 
 497:/Applications/ARM/arm-none-eabi/include/c++/10.3.1/cmath ****   using ::tanh;
ARM GAS  /var/folders/nm/rdtk7lzx1rb7s7p13pzvn_qr0000gn/T//ccdQxqBE.s 			page 43


 498:/Applications/ARM/arm-none-eabi/include/c++/10.3.1/cmath **** 
 499:/Applications/ARM/arm-none-eabi/include/c++/10.3.1/cmath **** #ifndef __CORRECT_ISO_CPP_MATH_H_PROTO
 500:/Applications/ARM/arm-none-eabi/include/c++/10.3.1/cmath ****   inline _GLIBCXX_CONSTEXPR float
 501:/Applications/ARM/arm-none-eabi/include/c++/10.3.1/cmath ****   tanh(float __x)
 502:/Applications/ARM/arm-none-eabi/include/c++/10.3.1/cmath ****   { return __builtin_tanhf(__x); }
 503:/Applications/ARM/arm-none-eabi/include/c++/10.3.1/cmath **** 
 504:/Applications/ARM/arm-none-eabi/include/c++/10.3.1/cmath ****   inline _GLIBCXX_CONSTEXPR long double
 505:/Applications/ARM/arm-none-eabi/include/c++/10.3.1/cmath ****   tanh(long double __x)
 506:/Applications/ARM/arm-none-eabi/include/c++/10.3.1/cmath ****   { return __builtin_tanhl(__x); }
 507:/Applications/ARM/arm-none-eabi/include/c++/10.3.1/cmath **** #endif
 508:/Applications/ARM/arm-none-eabi/include/c++/10.3.1/cmath **** 
 509:/Applications/ARM/arm-none-eabi/include/c++/10.3.1/cmath ****   template<typename _Tp>
 510:/Applications/ARM/arm-none-eabi/include/c++/10.3.1/cmath ****     inline _GLIBCXX_CONSTEXPR
 511:/Applications/ARM/arm-none-eabi/include/c++/10.3.1/cmath ****     typename __gnu_cxx::__enable_if<__is_integer<_Tp>::__value, 
 512:/Applications/ARM/arm-none-eabi/include/c++/10.3.1/cmath ****                                     double>::__type
 513:/Applications/ARM/arm-none-eabi/include/c++/10.3.1/cmath ****     tanh(_Tp __x)
 514:/Applications/ARM/arm-none-eabi/include/c++/10.3.1/cmath ****     { return __builtin_tanh(__x); }
 515:/Applications/ARM/arm-none-eabi/include/c++/10.3.1/cmath **** 
 516:/Applications/ARM/arm-none-eabi/include/c++/10.3.1/cmath **** #if _GLIBCXX_USE_C99_MATH
 517:/Applications/ARM/arm-none-eabi/include/c++/10.3.1/cmath **** #if !_GLIBCXX_USE_C99_FP_MACROS_DYNAMIC
 518:/Applications/ARM/arm-none-eabi/include/c++/10.3.1/cmath **** 
 519:/Applications/ARM/arm-none-eabi/include/c++/10.3.1/cmath **** // These are possible macros imported from C99-land.
 520:/Applications/ARM/arm-none-eabi/include/c++/10.3.1/cmath **** #undef fpclassify
 521:/Applications/ARM/arm-none-eabi/include/c++/10.3.1/cmath **** #undef isfinite
 522:/Applications/ARM/arm-none-eabi/include/c++/10.3.1/cmath **** #undef isinf
 523:/Applications/ARM/arm-none-eabi/include/c++/10.3.1/cmath **** #undef isnan
 524:/Applications/ARM/arm-none-eabi/include/c++/10.3.1/cmath **** #undef isnormal
 525:/Applications/ARM/arm-none-eabi/include/c++/10.3.1/cmath **** #undef signbit
 526:/Applications/ARM/arm-none-eabi/include/c++/10.3.1/cmath **** #undef isgreater
 527:/Applications/ARM/arm-none-eabi/include/c++/10.3.1/cmath **** #undef isgreaterequal
 528:/Applications/ARM/arm-none-eabi/include/c++/10.3.1/cmath **** #undef isless
 529:/Applications/ARM/arm-none-eabi/include/c++/10.3.1/cmath **** #undef islessequal
 530:/Applications/ARM/arm-none-eabi/include/c++/10.3.1/cmath **** #undef islessgreater
 531:/Applications/ARM/arm-none-eabi/include/c++/10.3.1/cmath **** #undef isunordered
 532:/Applications/ARM/arm-none-eabi/include/c++/10.3.1/cmath **** 
 533:/Applications/ARM/arm-none-eabi/include/c++/10.3.1/cmath **** #if __cplusplus >= 201103L
 534:/Applications/ARM/arm-none-eabi/include/c++/10.3.1/cmath **** 
 535:/Applications/ARM/arm-none-eabi/include/c++/10.3.1/cmath **** #ifndef __CORRECT_ISO_CPP11_MATH_H_PROTO_FP
 536:/Applications/ARM/arm-none-eabi/include/c++/10.3.1/cmath ****   constexpr int
 537:/Applications/ARM/arm-none-eabi/include/c++/10.3.1/cmath ****   fpclassify(float __x)
 538:/Applications/ARM/arm-none-eabi/include/c++/10.3.1/cmath ****   { return __builtin_fpclassify(FP_NAN, FP_INFINITE, FP_NORMAL,
 539:/Applications/ARM/arm-none-eabi/include/c++/10.3.1/cmath **** 				FP_SUBNORMAL, FP_ZERO, __x); }
 540:/Applications/ARM/arm-none-eabi/include/c++/10.3.1/cmath **** 
 541:/Applications/ARM/arm-none-eabi/include/c++/10.3.1/cmath ****   constexpr int
 542:/Applications/ARM/arm-none-eabi/include/c++/10.3.1/cmath ****   fpclassify(double __x)
 543:/Applications/ARM/arm-none-eabi/include/c++/10.3.1/cmath ****   { return __builtin_fpclassify(FP_NAN, FP_INFINITE, FP_NORMAL,
 544:/Applications/ARM/arm-none-eabi/include/c++/10.3.1/cmath **** 				FP_SUBNORMAL, FP_ZERO, __x); }
 545:/Applications/ARM/arm-none-eabi/include/c++/10.3.1/cmath **** 
 546:/Applications/ARM/arm-none-eabi/include/c++/10.3.1/cmath ****   constexpr int
 547:/Applications/ARM/arm-none-eabi/include/c++/10.3.1/cmath ****   fpclassify(long double __x)
 548:/Applications/ARM/arm-none-eabi/include/c++/10.3.1/cmath ****   { return __builtin_fpclassify(FP_NAN, FP_INFINITE, FP_NORMAL,
 549:/Applications/ARM/arm-none-eabi/include/c++/10.3.1/cmath **** 				FP_SUBNORMAL, FP_ZERO, __x); }
 550:/Applications/ARM/arm-none-eabi/include/c++/10.3.1/cmath **** #endif
 551:/Applications/ARM/arm-none-eabi/include/c++/10.3.1/cmath **** 
 552:/Applications/ARM/arm-none-eabi/include/c++/10.3.1/cmath **** #ifndef __CORRECT_ISO_CPP11_MATH_H_PROTO_INT
 553:/Applications/ARM/arm-none-eabi/include/c++/10.3.1/cmath ****   template<typename _Tp>
 554:/Applications/ARM/arm-none-eabi/include/c++/10.3.1/cmath ****     constexpr typename __gnu_cxx::__enable_if<__is_integer<_Tp>::__value,
ARM GAS  /var/folders/nm/rdtk7lzx1rb7s7p13pzvn_qr0000gn/T//ccdQxqBE.s 			page 44


 555:/Applications/ARM/arm-none-eabi/include/c++/10.3.1/cmath ****                                               int>::__type
 556:/Applications/ARM/arm-none-eabi/include/c++/10.3.1/cmath ****     fpclassify(_Tp __x)
 557:/Applications/ARM/arm-none-eabi/include/c++/10.3.1/cmath ****     { return __x != 0 ? FP_NORMAL : FP_ZERO; }
 558:/Applications/ARM/arm-none-eabi/include/c++/10.3.1/cmath **** #endif
 559:/Applications/ARM/arm-none-eabi/include/c++/10.3.1/cmath **** 
 560:/Applications/ARM/arm-none-eabi/include/c++/10.3.1/cmath **** #ifndef __CORRECT_ISO_CPP11_MATH_H_PROTO_FP
 561:/Applications/ARM/arm-none-eabi/include/c++/10.3.1/cmath ****   constexpr bool
 562:/Applications/ARM/arm-none-eabi/include/c++/10.3.1/cmath ****   isfinite(float __x)
 563:/Applications/ARM/arm-none-eabi/include/c++/10.3.1/cmath ****   { return __builtin_isfinite(__x); }
 564:/Applications/ARM/arm-none-eabi/include/c++/10.3.1/cmath **** 
 565:/Applications/ARM/arm-none-eabi/include/c++/10.3.1/cmath ****   constexpr bool
 566:/Applications/ARM/arm-none-eabi/include/c++/10.3.1/cmath ****   isfinite(double __x)
 567:/Applications/ARM/arm-none-eabi/include/c++/10.3.1/cmath ****   { return __builtin_isfinite(__x); }
 568:/Applications/ARM/arm-none-eabi/include/c++/10.3.1/cmath **** 
 569:/Applications/ARM/arm-none-eabi/include/c++/10.3.1/cmath ****   constexpr bool
 570:/Applications/ARM/arm-none-eabi/include/c++/10.3.1/cmath ****   isfinite(long double __x)
 571:/Applications/ARM/arm-none-eabi/include/c++/10.3.1/cmath ****   { return __builtin_isfinite(__x); }
 572:/Applications/ARM/arm-none-eabi/include/c++/10.3.1/cmath **** #endif
 573:/Applications/ARM/arm-none-eabi/include/c++/10.3.1/cmath **** 
 574:/Applications/ARM/arm-none-eabi/include/c++/10.3.1/cmath **** #ifndef __CORRECT_ISO_CPP11_MATH_H_PROTO_INT
 575:/Applications/ARM/arm-none-eabi/include/c++/10.3.1/cmath ****   template<typename _Tp>
 576:/Applications/ARM/arm-none-eabi/include/c++/10.3.1/cmath ****     constexpr typename __gnu_cxx::__enable_if<__is_integer<_Tp>::__value,
 577:/Applications/ARM/arm-none-eabi/include/c++/10.3.1/cmath ****                                               bool>::__type
 578:/Applications/ARM/arm-none-eabi/include/c++/10.3.1/cmath ****     isfinite(_Tp __x)
 579:/Applications/ARM/arm-none-eabi/include/c++/10.3.1/cmath ****     { return true; }
 580:/Applications/ARM/arm-none-eabi/include/c++/10.3.1/cmath **** #endif
 581:/Applications/ARM/arm-none-eabi/include/c++/10.3.1/cmath **** 
 582:/Applications/ARM/arm-none-eabi/include/c++/10.3.1/cmath **** #ifndef __CORRECT_ISO_CPP11_MATH_H_PROTO_FP
 583:/Applications/ARM/arm-none-eabi/include/c++/10.3.1/cmath ****   constexpr bool
 584:/Applications/ARM/arm-none-eabi/include/c++/10.3.1/cmath ****   isinf(float __x)
 585:/Applications/ARM/arm-none-eabi/include/c++/10.3.1/cmath ****   { return __builtin_isinf(__x); }
 586:/Applications/ARM/arm-none-eabi/include/c++/10.3.1/cmath **** 
 587:/Applications/ARM/arm-none-eabi/include/c++/10.3.1/cmath **** #if _GLIBCXX_HAVE_OBSOLETE_ISINF \
 588:/Applications/ARM/arm-none-eabi/include/c++/10.3.1/cmath ****   && !_GLIBCXX_NO_OBSOLETE_ISINF_ISNAN_DYNAMIC
 589:/Applications/ARM/arm-none-eabi/include/c++/10.3.1/cmath ****   using ::isinf;
 590:/Applications/ARM/arm-none-eabi/include/c++/10.3.1/cmath **** #else
 591:/Applications/ARM/arm-none-eabi/include/c++/10.3.1/cmath ****   constexpr bool
 592:/Applications/ARM/arm-none-eabi/include/c++/10.3.1/cmath ****   isinf(double __x)
 593:/Applications/ARM/arm-none-eabi/include/c++/10.3.1/cmath ****   { return __builtin_isinf(__x); }
 594:/Applications/ARM/arm-none-eabi/include/c++/10.3.1/cmath **** #endif
 595:/Applications/ARM/arm-none-eabi/include/c++/10.3.1/cmath **** 
 596:/Applications/ARM/arm-none-eabi/include/c++/10.3.1/cmath ****   constexpr bool
 597:/Applications/ARM/arm-none-eabi/include/c++/10.3.1/cmath ****   isinf(long double __x)
 598:/Applications/ARM/arm-none-eabi/include/c++/10.3.1/cmath ****   { return __builtin_isinf(__x); }
 599:/Applications/ARM/arm-none-eabi/include/c++/10.3.1/cmath **** #endif
 600:/Applications/ARM/arm-none-eabi/include/c++/10.3.1/cmath **** 
 601:/Applications/ARM/arm-none-eabi/include/c++/10.3.1/cmath **** #ifndef __CORRECT_ISO_CPP11_MATH_H_PROTO_INT
 602:/Applications/ARM/arm-none-eabi/include/c++/10.3.1/cmath ****   template<typename _Tp>
 603:/Applications/ARM/arm-none-eabi/include/c++/10.3.1/cmath ****     constexpr typename __gnu_cxx::__enable_if<__is_integer<_Tp>::__value,
 604:/Applications/ARM/arm-none-eabi/include/c++/10.3.1/cmath ****                                               bool>::__type
 605:/Applications/ARM/arm-none-eabi/include/c++/10.3.1/cmath ****     isinf(_Tp __x)
 606:/Applications/ARM/arm-none-eabi/include/c++/10.3.1/cmath ****     { return false; }
 607:/Applications/ARM/arm-none-eabi/include/c++/10.3.1/cmath **** #endif
 608:/Applications/ARM/arm-none-eabi/include/c++/10.3.1/cmath **** 
 609:/Applications/ARM/arm-none-eabi/include/c++/10.3.1/cmath **** #ifndef __CORRECT_ISO_CPP11_MATH_H_PROTO_FP
 610:/Applications/ARM/arm-none-eabi/include/c++/10.3.1/cmath ****   constexpr bool
 611:/Applications/ARM/arm-none-eabi/include/c++/10.3.1/cmath ****   isnan(float __x)
ARM GAS  /var/folders/nm/rdtk7lzx1rb7s7p13pzvn_qr0000gn/T//ccdQxqBE.s 			page 45


 612:/Applications/ARM/arm-none-eabi/include/c++/10.3.1/cmath ****   { return __builtin_isnan(__x); }
 613:/Applications/ARM/arm-none-eabi/include/c++/10.3.1/cmath **** 
 614:/Applications/ARM/arm-none-eabi/include/c++/10.3.1/cmath **** #if _GLIBCXX_HAVE_OBSOLETE_ISNAN \
 615:/Applications/ARM/arm-none-eabi/include/c++/10.3.1/cmath ****   && !_GLIBCXX_NO_OBSOLETE_ISINF_ISNAN_DYNAMIC
 616:/Applications/ARM/arm-none-eabi/include/c++/10.3.1/cmath ****   using ::isnan;
 617:/Applications/ARM/arm-none-eabi/include/c++/10.3.1/cmath **** #else
 618:/Applications/ARM/arm-none-eabi/include/c++/10.3.1/cmath ****   constexpr bool
 619:/Applications/ARM/arm-none-eabi/include/c++/10.3.1/cmath ****   isnan(double __x)
 620:/Applications/ARM/arm-none-eabi/include/c++/10.3.1/cmath ****   { return __builtin_isnan(__x); }
 621:/Applications/ARM/arm-none-eabi/include/c++/10.3.1/cmath **** #endif
 622:/Applications/ARM/arm-none-eabi/include/c++/10.3.1/cmath **** 
 623:/Applications/ARM/arm-none-eabi/include/c++/10.3.1/cmath ****   constexpr bool
 624:/Applications/ARM/arm-none-eabi/include/c++/10.3.1/cmath ****   isnan(long double __x)
 625:/Applications/ARM/arm-none-eabi/include/c++/10.3.1/cmath ****   { return __builtin_isnan(__x); }
 626:/Applications/ARM/arm-none-eabi/include/c++/10.3.1/cmath **** #endif
 627:/Applications/ARM/arm-none-eabi/include/c++/10.3.1/cmath **** 
 628:/Applications/ARM/arm-none-eabi/include/c++/10.3.1/cmath **** #ifndef __CORRECT_ISO_CPP11_MATH_H_PROTO_INT
 629:/Applications/ARM/arm-none-eabi/include/c++/10.3.1/cmath ****   template<typename _Tp>
 630:/Applications/ARM/arm-none-eabi/include/c++/10.3.1/cmath ****     constexpr typename __gnu_cxx::__enable_if<__is_integer<_Tp>::__value,
 631:/Applications/ARM/arm-none-eabi/include/c++/10.3.1/cmath ****                                               bool>::__type
 632:/Applications/ARM/arm-none-eabi/include/c++/10.3.1/cmath ****     isnan(_Tp __x)
 633:/Applications/ARM/arm-none-eabi/include/c++/10.3.1/cmath ****     { return false; }
 634:/Applications/ARM/arm-none-eabi/include/c++/10.3.1/cmath **** #endif
 635:/Applications/ARM/arm-none-eabi/include/c++/10.3.1/cmath **** 
 636:/Applications/ARM/arm-none-eabi/include/c++/10.3.1/cmath **** #ifndef __CORRECT_ISO_CPP11_MATH_H_PROTO_FP
 637:/Applications/ARM/arm-none-eabi/include/c++/10.3.1/cmath ****   constexpr bool
 638:/Applications/ARM/arm-none-eabi/include/c++/10.3.1/cmath ****   isnormal(float __x)
 639:/Applications/ARM/arm-none-eabi/include/c++/10.3.1/cmath ****   { return __builtin_isnormal(__x); }
 640:/Applications/ARM/arm-none-eabi/include/c++/10.3.1/cmath **** 
 641:/Applications/ARM/arm-none-eabi/include/c++/10.3.1/cmath ****   constexpr bool
 642:/Applications/ARM/arm-none-eabi/include/c++/10.3.1/cmath ****   isnormal(double __x)
 643:/Applications/ARM/arm-none-eabi/include/c++/10.3.1/cmath ****   { return __builtin_isnormal(__x); }
 644:/Applications/ARM/arm-none-eabi/include/c++/10.3.1/cmath **** 
 645:/Applications/ARM/arm-none-eabi/include/c++/10.3.1/cmath ****   constexpr bool
 646:/Applications/ARM/arm-none-eabi/include/c++/10.3.1/cmath ****   isnormal(long double __x)
 647:/Applications/ARM/arm-none-eabi/include/c++/10.3.1/cmath ****   { return __builtin_isnormal(__x); }
 648:/Applications/ARM/arm-none-eabi/include/c++/10.3.1/cmath **** #endif
 649:/Applications/ARM/arm-none-eabi/include/c++/10.3.1/cmath **** 
 650:/Applications/ARM/arm-none-eabi/include/c++/10.3.1/cmath **** #ifndef __CORRECT_ISO_CPP11_MATH_H_PROTO_INT
 651:/Applications/ARM/arm-none-eabi/include/c++/10.3.1/cmath ****   template<typename _Tp>
 652:/Applications/ARM/arm-none-eabi/include/c++/10.3.1/cmath ****     constexpr typename __gnu_cxx::__enable_if<__is_integer<_Tp>::__value,
 653:/Applications/ARM/arm-none-eabi/include/c++/10.3.1/cmath ****                                               bool>::__type
 654:/Applications/ARM/arm-none-eabi/include/c++/10.3.1/cmath ****     isnormal(_Tp __x)
 655:/Applications/ARM/arm-none-eabi/include/c++/10.3.1/cmath ****     { return __x != 0 ? true : false; }
 656:/Applications/ARM/arm-none-eabi/include/c++/10.3.1/cmath **** #endif
 657:/Applications/ARM/arm-none-eabi/include/c++/10.3.1/cmath **** 
 658:/Applications/ARM/arm-none-eabi/include/c++/10.3.1/cmath **** #ifndef __CORRECT_ISO_CPP11_MATH_H_PROTO_FP
 659:/Applications/ARM/arm-none-eabi/include/c++/10.3.1/cmath ****   // Note: middle-end/36757 is fixed, __builtin_signbit is type-generic.
 660:/Applications/ARM/arm-none-eabi/include/c++/10.3.1/cmath ****   constexpr bool
 661:/Applications/ARM/arm-none-eabi/include/c++/10.3.1/cmath ****   signbit(float __x)
 662:/Applications/ARM/arm-none-eabi/include/c++/10.3.1/cmath ****   { return __builtin_signbit(__x); }
 663:/Applications/ARM/arm-none-eabi/include/c++/10.3.1/cmath **** 
 664:/Applications/ARM/arm-none-eabi/include/c++/10.3.1/cmath ****   constexpr bool
 665:/Applications/ARM/arm-none-eabi/include/c++/10.3.1/cmath ****   signbit(double __x)
 666:/Applications/ARM/arm-none-eabi/include/c++/10.3.1/cmath ****   { return __builtin_signbit(__x); }
 667:/Applications/ARM/arm-none-eabi/include/c++/10.3.1/cmath **** 
 668:/Applications/ARM/arm-none-eabi/include/c++/10.3.1/cmath ****   constexpr bool
ARM GAS  /var/folders/nm/rdtk7lzx1rb7s7p13pzvn_qr0000gn/T//ccdQxqBE.s 			page 46


 669:/Applications/ARM/arm-none-eabi/include/c++/10.3.1/cmath ****   signbit(long double __x)
 670:/Applications/ARM/arm-none-eabi/include/c++/10.3.1/cmath ****   { return __builtin_signbit(__x); }
 671:/Applications/ARM/arm-none-eabi/include/c++/10.3.1/cmath **** #endif
 672:/Applications/ARM/arm-none-eabi/include/c++/10.3.1/cmath **** 
 673:/Applications/ARM/arm-none-eabi/include/c++/10.3.1/cmath **** #ifndef __CORRECT_ISO_CPP11_MATH_H_PROTO_INT
 674:/Applications/ARM/arm-none-eabi/include/c++/10.3.1/cmath ****   template<typename _Tp>
 675:/Applications/ARM/arm-none-eabi/include/c++/10.3.1/cmath ****     constexpr typename __gnu_cxx::__enable_if<__is_integer<_Tp>::__value,
 676:/Applications/ARM/arm-none-eabi/include/c++/10.3.1/cmath ****                                               bool>::__type
 677:/Applications/ARM/arm-none-eabi/include/c++/10.3.1/cmath ****     signbit(_Tp __x)
 678:/Applications/ARM/arm-none-eabi/include/c++/10.3.1/cmath ****     { return __x < 0 ? true : false; }
 679:/Applications/ARM/arm-none-eabi/include/c++/10.3.1/cmath **** #endif
 680:/Applications/ARM/arm-none-eabi/include/c++/10.3.1/cmath **** 
 681:/Applications/ARM/arm-none-eabi/include/c++/10.3.1/cmath **** #ifndef __CORRECT_ISO_CPP11_MATH_H_PROTO_FP
 682:/Applications/ARM/arm-none-eabi/include/c++/10.3.1/cmath ****   constexpr bool
 683:/Applications/ARM/arm-none-eabi/include/c++/10.3.1/cmath ****   isgreater(float __x, float __y)
 684:/Applications/ARM/arm-none-eabi/include/c++/10.3.1/cmath ****   { return __builtin_isgreater(__x, __y); }
 685:/Applications/ARM/arm-none-eabi/include/c++/10.3.1/cmath **** 
 686:/Applications/ARM/arm-none-eabi/include/c++/10.3.1/cmath ****   constexpr bool
 687:/Applications/ARM/arm-none-eabi/include/c++/10.3.1/cmath ****   isgreater(double __x, double __y)
 688:/Applications/ARM/arm-none-eabi/include/c++/10.3.1/cmath ****   { return __builtin_isgreater(__x, __y); }
 689:/Applications/ARM/arm-none-eabi/include/c++/10.3.1/cmath **** 
 690:/Applications/ARM/arm-none-eabi/include/c++/10.3.1/cmath ****   constexpr bool
 691:/Applications/ARM/arm-none-eabi/include/c++/10.3.1/cmath ****   isgreater(long double __x, long double __y)
 692:/Applications/ARM/arm-none-eabi/include/c++/10.3.1/cmath ****   { return __builtin_isgreater(__x, __y); }
 693:/Applications/ARM/arm-none-eabi/include/c++/10.3.1/cmath **** #endif
 694:/Applications/ARM/arm-none-eabi/include/c++/10.3.1/cmath **** 
 695:/Applications/ARM/arm-none-eabi/include/c++/10.3.1/cmath **** #ifndef __CORRECT_ISO_CPP11_MATH_H_PROTO_INT
 696:/Applications/ARM/arm-none-eabi/include/c++/10.3.1/cmath ****   template<typename _Tp, typename _Up>
 697:/Applications/ARM/arm-none-eabi/include/c++/10.3.1/cmath ****     constexpr typename
 698:/Applications/ARM/arm-none-eabi/include/c++/10.3.1/cmath ****     __gnu_cxx::__enable_if<(__is_arithmetic<_Tp>::__value
 699:/Applications/ARM/arm-none-eabi/include/c++/10.3.1/cmath **** 			    && __is_arithmetic<_Up>::__value), bool>::__type
 700:/Applications/ARM/arm-none-eabi/include/c++/10.3.1/cmath ****     isgreater(_Tp __x, _Up __y)
 701:/Applications/ARM/arm-none-eabi/include/c++/10.3.1/cmath ****     {
 702:/Applications/ARM/arm-none-eabi/include/c++/10.3.1/cmath ****       typedef typename __gnu_cxx::__promote_2<_Tp, _Up>::__type __type;
 703:/Applications/ARM/arm-none-eabi/include/c++/10.3.1/cmath ****       return __builtin_isgreater(__type(__x), __type(__y));
 704:/Applications/ARM/arm-none-eabi/include/c++/10.3.1/cmath ****     }
 705:/Applications/ARM/arm-none-eabi/include/c++/10.3.1/cmath **** #endif
 706:/Applications/ARM/arm-none-eabi/include/c++/10.3.1/cmath **** 
 707:/Applications/ARM/arm-none-eabi/include/c++/10.3.1/cmath **** #ifndef __CORRECT_ISO_CPP11_MATH_H_PROTO_FP
 708:/Applications/ARM/arm-none-eabi/include/c++/10.3.1/cmath ****   constexpr bool
 709:/Applications/ARM/arm-none-eabi/include/c++/10.3.1/cmath ****   isgreaterequal(float __x, float __y)
 710:/Applications/ARM/arm-none-eabi/include/c++/10.3.1/cmath ****   { return __builtin_isgreaterequal(__x, __y); }
 711:/Applications/ARM/arm-none-eabi/include/c++/10.3.1/cmath **** 
 712:/Applications/ARM/arm-none-eabi/include/c++/10.3.1/cmath ****   constexpr bool
 713:/Applications/ARM/arm-none-eabi/include/c++/10.3.1/cmath ****   isgreaterequal(double __x, double __y)
 714:/Applications/ARM/arm-none-eabi/include/c++/10.3.1/cmath ****   { return __builtin_isgreaterequal(__x, __y); }
 715:/Applications/ARM/arm-none-eabi/include/c++/10.3.1/cmath **** 
 716:/Applications/ARM/arm-none-eabi/include/c++/10.3.1/cmath ****   constexpr bool
 717:/Applications/ARM/arm-none-eabi/include/c++/10.3.1/cmath ****   isgreaterequal(long double __x, long double __y)
 718:/Applications/ARM/arm-none-eabi/include/c++/10.3.1/cmath ****   { return __builtin_isgreaterequal(__x, __y); }
 719:/Applications/ARM/arm-none-eabi/include/c++/10.3.1/cmath **** #endif
 720:/Applications/ARM/arm-none-eabi/include/c++/10.3.1/cmath **** 
 721:/Applications/ARM/arm-none-eabi/include/c++/10.3.1/cmath **** #ifndef __CORRECT_ISO_CPP11_MATH_H_PROTO_INT
 722:/Applications/ARM/arm-none-eabi/include/c++/10.3.1/cmath ****   template<typename _Tp, typename _Up>
 723:/Applications/ARM/arm-none-eabi/include/c++/10.3.1/cmath ****     constexpr typename
 724:/Applications/ARM/arm-none-eabi/include/c++/10.3.1/cmath ****     __gnu_cxx::__enable_if<(__is_arithmetic<_Tp>::__value
 725:/Applications/ARM/arm-none-eabi/include/c++/10.3.1/cmath **** 			    && __is_arithmetic<_Up>::__value), bool>::__type
ARM GAS  /var/folders/nm/rdtk7lzx1rb7s7p13pzvn_qr0000gn/T//ccdQxqBE.s 			page 47


 726:/Applications/ARM/arm-none-eabi/include/c++/10.3.1/cmath ****     isgreaterequal(_Tp __x, _Up __y)
 727:/Applications/ARM/arm-none-eabi/include/c++/10.3.1/cmath ****     {
 728:/Applications/ARM/arm-none-eabi/include/c++/10.3.1/cmath ****       typedef typename __gnu_cxx::__promote_2<_Tp, _Up>::__type __type;
 729:/Applications/ARM/arm-none-eabi/include/c++/10.3.1/cmath ****       return __builtin_isgreaterequal(__type(__x), __type(__y));
 730:/Applications/ARM/arm-none-eabi/include/c++/10.3.1/cmath ****     }
 731:/Applications/ARM/arm-none-eabi/include/c++/10.3.1/cmath **** #endif
 732:/Applications/ARM/arm-none-eabi/include/c++/10.3.1/cmath **** 
 733:/Applications/ARM/arm-none-eabi/include/c++/10.3.1/cmath **** #ifndef __CORRECT_ISO_CPP11_MATH_H_PROTO_FP
 734:/Applications/ARM/arm-none-eabi/include/c++/10.3.1/cmath ****   constexpr bool
 735:/Applications/ARM/arm-none-eabi/include/c++/10.3.1/cmath ****   isless(float __x, float __y)
 736:/Applications/ARM/arm-none-eabi/include/c++/10.3.1/cmath ****   { return __builtin_isless(__x, __y); }
 737:/Applications/ARM/arm-none-eabi/include/c++/10.3.1/cmath **** 
 738:/Applications/ARM/arm-none-eabi/include/c++/10.3.1/cmath ****   constexpr bool
 739:/Applications/ARM/arm-none-eabi/include/c++/10.3.1/cmath ****   isless(double __x, double __y)
 740:/Applications/ARM/arm-none-eabi/include/c++/10.3.1/cmath ****   { return __builtin_isless(__x, __y); }
 741:/Applications/ARM/arm-none-eabi/include/c++/10.3.1/cmath **** 
 742:/Applications/ARM/arm-none-eabi/include/c++/10.3.1/cmath ****   constexpr bool
 743:/Applications/ARM/arm-none-eabi/include/c++/10.3.1/cmath ****   isless(long double __x, long double __y)
 744:/Applications/ARM/arm-none-eabi/include/c++/10.3.1/cmath ****   { return __builtin_isless(__x, __y); }
 745:/Applications/ARM/arm-none-eabi/include/c++/10.3.1/cmath **** #endif
 746:/Applications/ARM/arm-none-eabi/include/c++/10.3.1/cmath **** 
 747:/Applications/ARM/arm-none-eabi/include/c++/10.3.1/cmath **** #ifndef __CORRECT_ISO_CPP11_MATH_H_PROTO_INT
 748:/Applications/ARM/arm-none-eabi/include/c++/10.3.1/cmath ****   template<typename _Tp, typename _Up>
 749:/Applications/ARM/arm-none-eabi/include/c++/10.3.1/cmath ****     constexpr typename
 750:/Applications/ARM/arm-none-eabi/include/c++/10.3.1/cmath ****     __gnu_cxx::__enable_if<(__is_arithmetic<_Tp>::__value
 751:/Applications/ARM/arm-none-eabi/include/c++/10.3.1/cmath **** 			    && __is_arithmetic<_Up>::__value), bool>::__type
 752:/Applications/ARM/arm-none-eabi/include/c++/10.3.1/cmath ****     isless(_Tp __x, _Up __y)
 753:/Applications/ARM/arm-none-eabi/include/c++/10.3.1/cmath ****     {
 754:/Applications/ARM/arm-none-eabi/include/c++/10.3.1/cmath ****       typedef typename __gnu_cxx::__promote_2<_Tp, _Up>::__type __type;
 755:/Applications/ARM/arm-none-eabi/include/c++/10.3.1/cmath ****       return __builtin_isless(__type(__x), __type(__y));
 756:/Applications/ARM/arm-none-eabi/include/c++/10.3.1/cmath ****     }
 757:/Applications/ARM/arm-none-eabi/include/c++/10.3.1/cmath **** #endif
 758:/Applications/ARM/arm-none-eabi/include/c++/10.3.1/cmath **** 
 759:/Applications/ARM/arm-none-eabi/include/c++/10.3.1/cmath **** #ifndef __CORRECT_ISO_CPP11_MATH_H_PROTO_FP
 760:/Applications/ARM/arm-none-eabi/include/c++/10.3.1/cmath ****   constexpr bool
 761:/Applications/ARM/arm-none-eabi/include/c++/10.3.1/cmath ****   islessequal(float __x, float __y)
 762:/Applications/ARM/arm-none-eabi/include/c++/10.3.1/cmath ****   { return __builtin_islessequal(__x, __y); }
 763:/Applications/ARM/arm-none-eabi/include/c++/10.3.1/cmath **** 
 764:/Applications/ARM/arm-none-eabi/include/c++/10.3.1/cmath ****   constexpr bool
 765:/Applications/ARM/arm-none-eabi/include/c++/10.3.1/cmath ****   islessequal(double __x, double __y)
 766:/Applications/ARM/arm-none-eabi/include/c++/10.3.1/cmath ****   { return __builtin_islessequal(__x, __y); }
 767:/Applications/ARM/arm-none-eabi/include/c++/10.3.1/cmath **** 
 768:/Applications/ARM/arm-none-eabi/include/c++/10.3.1/cmath ****   constexpr bool
 769:/Applications/ARM/arm-none-eabi/include/c++/10.3.1/cmath ****   islessequal(long double __x, long double __y)
 770:/Applications/ARM/arm-none-eabi/include/c++/10.3.1/cmath ****   { return __builtin_islessequal(__x, __y); }
 771:/Applications/ARM/arm-none-eabi/include/c++/10.3.1/cmath **** #endif
 772:/Applications/ARM/arm-none-eabi/include/c++/10.3.1/cmath **** 
 773:/Applications/ARM/arm-none-eabi/include/c++/10.3.1/cmath **** #ifndef __CORRECT_ISO_CPP11_MATH_H_PROTO_INT
 774:/Applications/ARM/arm-none-eabi/include/c++/10.3.1/cmath ****   template<typename _Tp, typename _Up>
 775:/Applications/ARM/arm-none-eabi/include/c++/10.3.1/cmath ****     constexpr typename
 776:/Applications/ARM/arm-none-eabi/include/c++/10.3.1/cmath ****     __gnu_cxx::__enable_if<(__is_arithmetic<_Tp>::__value
 777:/Applications/ARM/arm-none-eabi/include/c++/10.3.1/cmath **** 			    && __is_arithmetic<_Up>::__value), bool>::__type
 778:/Applications/ARM/arm-none-eabi/include/c++/10.3.1/cmath ****     islessequal(_Tp __x, _Up __y)
 779:/Applications/ARM/arm-none-eabi/include/c++/10.3.1/cmath ****     {
 780:/Applications/ARM/arm-none-eabi/include/c++/10.3.1/cmath ****       typedef typename __gnu_cxx::__promote_2<_Tp, _Up>::__type __type;
 781:/Applications/ARM/arm-none-eabi/include/c++/10.3.1/cmath ****       return __builtin_islessequal(__type(__x), __type(__y));
 782:/Applications/ARM/arm-none-eabi/include/c++/10.3.1/cmath ****     }
ARM GAS  /var/folders/nm/rdtk7lzx1rb7s7p13pzvn_qr0000gn/T//ccdQxqBE.s 			page 48


 783:/Applications/ARM/arm-none-eabi/include/c++/10.3.1/cmath **** #endif
 784:/Applications/ARM/arm-none-eabi/include/c++/10.3.1/cmath **** 
 785:/Applications/ARM/arm-none-eabi/include/c++/10.3.1/cmath **** #ifndef __CORRECT_ISO_CPP11_MATH_H_PROTO_FP
 786:/Applications/ARM/arm-none-eabi/include/c++/10.3.1/cmath ****   constexpr bool
 787:/Applications/ARM/arm-none-eabi/include/c++/10.3.1/cmath ****   islessgreater(float __x, float __y)
 788:/Applications/ARM/arm-none-eabi/include/c++/10.3.1/cmath ****   { return __builtin_islessgreater(__x, __y); }
 789:/Applications/ARM/arm-none-eabi/include/c++/10.3.1/cmath **** 
 790:/Applications/ARM/arm-none-eabi/include/c++/10.3.1/cmath ****   constexpr bool
 791:/Applications/ARM/arm-none-eabi/include/c++/10.3.1/cmath ****   islessgreater(double __x, double __y)
 792:/Applications/ARM/arm-none-eabi/include/c++/10.3.1/cmath ****   { return __builtin_islessgreater(__x, __y); }
 793:/Applications/ARM/arm-none-eabi/include/c++/10.3.1/cmath **** 
 794:/Applications/ARM/arm-none-eabi/include/c++/10.3.1/cmath ****   constexpr bool
 795:/Applications/ARM/arm-none-eabi/include/c++/10.3.1/cmath ****   islessgreater(long double __x, long double __y)
 796:/Applications/ARM/arm-none-eabi/include/c++/10.3.1/cmath ****   { return __builtin_islessgreater(__x, __y); }
 797:/Applications/ARM/arm-none-eabi/include/c++/10.3.1/cmath **** #endif
 798:/Applications/ARM/arm-none-eabi/include/c++/10.3.1/cmath **** 
 799:/Applications/ARM/arm-none-eabi/include/c++/10.3.1/cmath **** #ifndef __CORRECT_ISO_CPP11_MATH_H_PROTO_INT
 800:/Applications/ARM/arm-none-eabi/include/c++/10.3.1/cmath ****   template<typename _Tp, typename _Up>
 801:/Applications/ARM/arm-none-eabi/include/c++/10.3.1/cmath ****     constexpr typename
 802:/Applications/ARM/arm-none-eabi/include/c++/10.3.1/cmath ****     __gnu_cxx::__enable_if<(__is_arithmetic<_Tp>::__value
 803:/Applications/ARM/arm-none-eabi/include/c++/10.3.1/cmath **** 			    && __is_arithmetic<_Up>::__value), bool>::__type
 804:/Applications/ARM/arm-none-eabi/include/c++/10.3.1/cmath ****     islessgreater(_Tp __x, _Up __y)
 805:/Applications/ARM/arm-none-eabi/include/c++/10.3.1/cmath ****     {
 806:/Applications/ARM/arm-none-eabi/include/c++/10.3.1/cmath ****       typedef typename __gnu_cxx::__promote_2<_Tp, _Up>::__type __type;
 807:/Applications/ARM/arm-none-eabi/include/c++/10.3.1/cmath ****       return __builtin_islessgreater(__type(__x), __type(__y));
 808:/Applications/ARM/arm-none-eabi/include/c++/10.3.1/cmath ****     }
 809:/Applications/ARM/arm-none-eabi/include/c++/10.3.1/cmath **** #endif
 810:/Applications/ARM/arm-none-eabi/include/c++/10.3.1/cmath **** 
 811:/Applications/ARM/arm-none-eabi/include/c++/10.3.1/cmath **** #ifndef __CORRECT_ISO_CPP11_MATH_H_PROTO_FP
 812:/Applications/ARM/arm-none-eabi/include/c++/10.3.1/cmath ****   constexpr bool
 813:/Applications/ARM/arm-none-eabi/include/c++/10.3.1/cmath ****   isunordered(float __x, float __y)
 814:/Applications/ARM/arm-none-eabi/include/c++/10.3.1/cmath ****   { return __builtin_isunordered(__x, __y); }
 815:/Applications/ARM/arm-none-eabi/include/c++/10.3.1/cmath **** 
 816:/Applications/ARM/arm-none-eabi/include/c++/10.3.1/cmath ****   constexpr bool
 817:/Applications/ARM/arm-none-eabi/include/c++/10.3.1/cmath ****   isunordered(double __x, double __y)
 818:/Applications/ARM/arm-none-eabi/include/c++/10.3.1/cmath ****   { return __builtin_isunordered(__x, __y); }
 819:/Applications/ARM/arm-none-eabi/include/c++/10.3.1/cmath **** 
 820:/Applications/ARM/arm-none-eabi/include/c++/10.3.1/cmath ****   constexpr bool
 821:/Applications/ARM/arm-none-eabi/include/c++/10.3.1/cmath ****   isunordered(long double __x, long double __y)
 822:/Applications/ARM/arm-none-eabi/include/c++/10.3.1/cmath ****   { return __builtin_isunordered(__x, __y); }
 823:/Applications/ARM/arm-none-eabi/include/c++/10.3.1/cmath **** #endif
 824:/Applications/ARM/arm-none-eabi/include/c++/10.3.1/cmath **** 
 825:/Applications/ARM/arm-none-eabi/include/c++/10.3.1/cmath **** #ifndef __CORRECT_ISO_CPP11_MATH_H_PROTO_INT
 826:/Applications/ARM/arm-none-eabi/include/c++/10.3.1/cmath ****   template<typename _Tp, typename _Up>
 827:/Applications/ARM/arm-none-eabi/include/c++/10.3.1/cmath ****     constexpr typename
 828:/Applications/ARM/arm-none-eabi/include/c++/10.3.1/cmath ****     __gnu_cxx::__enable_if<(__is_arithmetic<_Tp>::__value
 829:/Applications/ARM/arm-none-eabi/include/c++/10.3.1/cmath **** 			    && __is_arithmetic<_Up>::__value), bool>::__type
 830:/Applications/ARM/arm-none-eabi/include/c++/10.3.1/cmath ****     isunordered(_Tp __x, _Up __y)
 831:/Applications/ARM/arm-none-eabi/include/c++/10.3.1/cmath ****     {
 832:/Applications/ARM/arm-none-eabi/include/c++/10.3.1/cmath ****       typedef typename __gnu_cxx::__promote_2<_Tp, _Up>::__type __type;
 833:/Applications/ARM/arm-none-eabi/include/c++/10.3.1/cmath ****       return __builtin_isunordered(__type(__x), __type(__y));
 834:/Applications/ARM/arm-none-eabi/include/c++/10.3.1/cmath ****     }
 835:/Applications/ARM/arm-none-eabi/include/c++/10.3.1/cmath **** #endif
 836:/Applications/ARM/arm-none-eabi/include/c++/10.3.1/cmath **** 
 837:/Applications/ARM/arm-none-eabi/include/c++/10.3.1/cmath **** #else
 838:/Applications/ARM/arm-none-eabi/include/c++/10.3.1/cmath **** 
 839:/Applications/ARM/arm-none-eabi/include/c++/10.3.1/cmath ****   template<typename _Tp>
ARM GAS  /var/folders/nm/rdtk7lzx1rb7s7p13pzvn_qr0000gn/T//ccdQxqBE.s 			page 49


 840:/Applications/ARM/arm-none-eabi/include/c++/10.3.1/cmath ****     inline typename __gnu_cxx::__enable_if<__is_arithmetic<_Tp>::__value,
 841:/Applications/ARM/arm-none-eabi/include/c++/10.3.1/cmath **** 					   int>::__type
 842:/Applications/ARM/arm-none-eabi/include/c++/10.3.1/cmath ****     fpclassify(_Tp __f)
 843:/Applications/ARM/arm-none-eabi/include/c++/10.3.1/cmath ****     {
 844:/Applications/ARM/arm-none-eabi/include/c++/10.3.1/cmath ****       typedef typename __gnu_cxx::__promote<_Tp>::__type __type;
 845:/Applications/ARM/arm-none-eabi/include/c++/10.3.1/cmath ****       return __builtin_fpclassify(FP_NAN, FP_INFINITE, FP_NORMAL,
 846:/Applications/ARM/arm-none-eabi/include/c++/10.3.1/cmath **** 				  FP_SUBNORMAL, FP_ZERO, __type(__f));
 847:/Applications/ARM/arm-none-eabi/include/c++/10.3.1/cmath ****     }
 848:/Applications/ARM/arm-none-eabi/include/c++/10.3.1/cmath **** 
 849:/Applications/ARM/arm-none-eabi/include/c++/10.3.1/cmath ****   template<typename _Tp>
 850:/Applications/ARM/arm-none-eabi/include/c++/10.3.1/cmath ****     inline typename __gnu_cxx::__enable_if<__is_arithmetic<_Tp>::__value,
 851:/Applications/ARM/arm-none-eabi/include/c++/10.3.1/cmath **** 					   int>::__type
 852:/Applications/ARM/arm-none-eabi/include/c++/10.3.1/cmath ****     isfinite(_Tp __f)
 853:/Applications/ARM/arm-none-eabi/include/c++/10.3.1/cmath ****     {
 854:/Applications/ARM/arm-none-eabi/include/c++/10.3.1/cmath ****       typedef typename __gnu_cxx::__promote<_Tp>::__type __type;
 855:/Applications/ARM/arm-none-eabi/include/c++/10.3.1/cmath ****       return __builtin_isfinite(__type(__f));
 856:/Applications/ARM/arm-none-eabi/include/c++/10.3.1/cmath ****     }
 857:/Applications/ARM/arm-none-eabi/include/c++/10.3.1/cmath **** 
 858:/Applications/ARM/arm-none-eabi/include/c++/10.3.1/cmath ****   template<typename _Tp>
 859:/Applications/ARM/arm-none-eabi/include/c++/10.3.1/cmath ****     inline typename __gnu_cxx::__enable_if<__is_arithmetic<_Tp>::__value,
 860:/Applications/ARM/arm-none-eabi/include/c++/10.3.1/cmath **** 					   int>::__type
 861:/Applications/ARM/arm-none-eabi/include/c++/10.3.1/cmath ****     isinf(_Tp __f)
 862:/Applications/ARM/arm-none-eabi/include/c++/10.3.1/cmath ****     {
 863:/Applications/ARM/arm-none-eabi/include/c++/10.3.1/cmath ****       typedef typename __gnu_cxx::__promote<_Tp>::__type __type;
 864:/Applications/ARM/arm-none-eabi/include/c++/10.3.1/cmath ****       return __builtin_isinf(__type(__f));
 865:/Applications/ARM/arm-none-eabi/include/c++/10.3.1/cmath ****     }
 866:/Applications/ARM/arm-none-eabi/include/c++/10.3.1/cmath **** 
 867:/Applications/ARM/arm-none-eabi/include/c++/10.3.1/cmath ****   template<typename _Tp>
 868:/Applications/ARM/arm-none-eabi/include/c++/10.3.1/cmath ****     inline typename __gnu_cxx::__enable_if<__is_arithmetic<_Tp>::__value,
 869:/Applications/ARM/arm-none-eabi/include/c++/10.3.1/cmath **** 					   int>::__type
 870:/Applications/ARM/arm-none-eabi/include/c++/10.3.1/cmath ****     isnan(_Tp __f)
 871:/Applications/ARM/arm-none-eabi/include/c++/10.3.1/cmath ****     {
 872:/Applications/ARM/arm-none-eabi/include/c++/10.3.1/cmath ****       typedef typename __gnu_cxx::__promote<_Tp>::__type __type;
 873:/Applications/ARM/arm-none-eabi/include/c++/10.3.1/cmath ****       return __builtin_isnan(__type(__f));
 874:/Applications/ARM/arm-none-eabi/include/c++/10.3.1/cmath ****     }
 875:/Applications/ARM/arm-none-eabi/include/c++/10.3.1/cmath **** 
 876:/Applications/ARM/arm-none-eabi/include/c++/10.3.1/cmath ****   template<typename _Tp>
 877:/Applications/ARM/arm-none-eabi/include/c++/10.3.1/cmath ****     inline typename __gnu_cxx::__enable_if<__is_arithmetic<_Tp>::__value,
 878:/Applications/ARM/arm-none-eabi/include/c++/10.3.1/cmath **** 					   int>::__type
 879:/Applications/ARM/arm-none-eabi/include/c++/10.3.1/cmath ****     isnormal(_Tp __f)
 880:/Applications/ARM/arm-none-eabi/include/c++/10.3.1/cmath ****     {
 881:/Applications/ARM/arm-none-eabi/include/c++/10.3.1/cmath ****       typedef typename __gnu_cxx::__promote<_Tp>::__type __type;
 882:/Applications/ARM/arm-none-eabi/include/c++/10.3.1/cmath ****       return __builtin_isnormal(__type(__f));
 883:/Applications/ARM/arm-none-eabi/include/c++/10.3.1/cmath ****     }
 884:/Applications/ARM/arm-none-eabi/include/c++/10.3.1/cmath **** 
 885:/Applications/ARM/arm-none-eabi/include/c++/10.3.1/cmath ****   template<typename _Tp>
 886:/Applications/ARM/arm-none-eabi/include/c++/10.3.1/cmath ****     inline typename __gnu_cxx::__enable_if<__is_arithmetic<_Tp>::__value,
 887:/Applications/ARM/arm-none-eabi/include/c++/10.3.1/cmath **** 					   int>::__type
 888:/Applications/ARM/arm-none-eabi/include/c++/10.3.1/cmath ****     signbit(_Tp __f)
 889:/Applications/ARM/arm-none-eabi/include/c++/10.3.1/cmath ****     {
 890:/Applications/ARM/arm-none-eabi/include/c++/10.3.1/cmath ****       typedef typename __gnu_cxx::__promote<_Tp>::__type __type;
 891:/Applications/ARM/arm-none-eabi/include/c++/10.3.1/cmath ****       return __builtin_signbit(__type(__f));
 892:/Applications/ARM/arm-none-eabi/include/c++/10.3.1/cmath ****     }
 893:/Applications/ARM/arm-none-eabi/include/c++/10.3.1/cmath **** 
 894:/Applications/ARM/arm-none-eabi/include/c++/10.3.1/cmath ****   template<typename _Tp>
 895:/Applications/ARM/arm-none-eabi/include/c++/10.3.1/cmath ****     inline typename __gnu_cxx::__enable_if<__is_arithmetic<_Tp>::__value,
 896:/Applications/ARM/arm-none-eabi/include/c++/10.3.1/cmath **** 					   int>::__type
ARM GAS  /var/folders/nm/rdtk7lzx1rb7s7p13pzvn_qr0000gn/T//ccdQxqBE.s 			page 50


 897:/Applications/ARM/arm-none-eabi/include/c++/10.3.1/cmath ****     isgreater(_Tp __f1, _Tp __f2)
 898:/Applications/ARM/arm-none-eabi/include/c++/10.3.1/cmath ****     {
 899:/Applications/ARM/arm-none-eabi/include/c++/10.3.1/cmath ****       typedef typename __gnu_cxx::__promote<_Tp>::__type __type;
 900:/Applications/ARM/arm-none-eabi/include/c++/10.3.1/cmath ****       return __builtin_isgreater(__type(__f1), __type(__f2));
 901:/Applications/ARM/arm-none-eabi/include/c++/10.3.1/cmath ****     }
 902:/Applications/ARM/arm-none-eabi/include/c++/10.3.1/cmath **** 
 903:/Applications/ARM/arm-none-eabi/include/c++/10.3.1/cmath ****   template<typename _Tp>
 904:/Applications/ARM/arm-none-eabi/include/c++/10.3.1/cmath ****     inline typename __gnu_cxx::__enable_if<__is_arithmetic<_Tp>::__value,
 905:/Applications/ARM/arm-none-eabi/include/c++/10.3.1/cmath **** 					   int>::__type
 906:/Applications/ARM/arm-none-eabi/include/c++/10.3.1/cmath ****     isgreaterequal(_Tp __f1, _Tp __f2)
 907:/Applications/ARM/arm-none-eabi/include/c++/10.3.1/cmath ****     {
 908:/Applications/ARM/arm-none-eabi/include/c++/10.3.1/cmath ****       typedef typename __gnu_cxx::__promote<_Tp>::__type __type;
 909:/Applications/ARM/arm-none-eabi/include/c++/10.3.1/cmath ****       return __builtin_isgreaterequal(__type(__f1), __type(__f2));
 910:/Applications/ARM/arm-none-eabi/include/c++/10.3.1/cmath ****     }
 911:/Applications/ARM/arm-none-eabi/include/c++/10.3.1/cmath **** 
 912:/Applications/ARM/arm-none-eabi/include/c++/10.3.1/cmath ****   template<typename _Tp>
 913:/Applications/ARM/arm-none-eabi/include/c++/10.3.1/cmath ****     inline typename __gnu_cxx::__enable_if<__is_arithmetic<_Tp>::__value,
 914:/Applications/ARM/arm-none-eabi/include/c++/10.3.1/cmath **** 					   int>::__type
 915:/Applications/ARM/arm-none-eabi/include/c++/10.3.1/cmath ****     isless(_Tp __f1, _Tp __f2)
 916:/Applications/ARM/arm-none-eabi/include/c++/10.3.1/cmath ****     {
 917:/Applications/ARM/arm-none-eabi/include/c++/10.3.1/cmath ****       typedef typename __gnu_cxx::__promote<_Tp>::__type __type;
 918:/Applications/ARM/arm-none-eabi/include/c++/10.3.1/cmath ****       return __builtin_isless(__type(__f1), __type(__f2));
 919:/Applications/ARM/arm-none-eabi/include/c++/10.3.1/cmath ****     }
 920:/Applications/ARM/arm-none-eabi/include/c++/10.3.1/cmath **** 
 921:/Applications/ARM/arm-none-eabi/include/c++/10.3.1/cmath ****   template<typename _Tp>
 922:/Applications/ARM/arm-none-eabi/include/c++/10.3.1/cmath ****     inline typename __gnu_cxx::__enable_if<__is_arithmetic<_Tp>::__value,
 923:/Applications/ARM/arm-none-eabi/include/c++/10.3.1/cmath **** 					   int>::__type
 924:/Applications/ARM/arm-none-eabi/include/c++/10.3.1/cmath ****     islessequal(_Tp __f1, _Tp __f2)
 925:/Applications/ARM/arm-none-eabi/include/c++/10.3.1/cmath ****     {
 926:/Applications/ARM/arm-none-eabi/include/c++/10.3.1/cmath ****       typedef typename __gnu_cxx::__promote<_Tp>::__type __type;
 927:/Applications/ARM/arm-none-eabi/include/c++/10.3.1/cmath ****       return __builtin_islessequal(__type(__f1), __type(__f2));
 928:/Applications/ARM/arm-none-eabi/include/c++/10.3.1/cmath ****     }
 929:/Applications/ARM/arm-none-eabi/include/c++/10.3.1/cmath **** 
 930:/Applications/ARM/arm-none-eabi/include/c++/10.3.1/cmath ****   template<typename _Tp>
 931:/Applications/ARM/arm-none-eabi/include/c++/10.3.1/cmath ****     inline typename __gnu_cxx::__enable_if<__is_arithmetic<_Tp>::__value,
 932:/Applications/ARM/arm-none-eabi/include/c++/10.3.1/cmath **** 					   int>::__type
 933:/Applications/ARM/arm-none-eabi/include/c++/10.3.1/cmath ****     islessgreater(_Tp __f1, _Tp __f2)
 934:/Applications/ARM/arm-none-eabi/include/c++/10.3.1/cmath ****     {
 935:/Applications/ARM/arm-none-eabi/include/c++/10.3.1/cmath ****       typedef typename __gnu_cxx::__promote<_Tp>::__type __type;
 936:/Applications/ARM/arm-none-eabi/include/c++/10.3.1/cmath ****       return __builtin_islessgreater(__type(__f1), __type(__f2));
 937:/Applications/ARM/arm-none-eabi/include/c++/10.3.1/cmath ****     }
 938:/Applications/ARM/arm-none-eabi/include/c++/10.3.1/cmath **** 
 939:/Applications/ARM/arm-none-eabi/include/c++/10.3.1/cmath ****   template<typename _Tp>
 940:/Applications/ARM/arm-none-eabi/include/c++/10.3.1/cmath ****     inline typename __gnu_cxx::__enable_if<__is_arithmetic<_Tp>::__value,
 941:/Applications/ARM/arm-none-eabi/include/c++/10.3.1/cmath **** 					   int>::__type
 942:/Applications/ARM/arm-none-eabi/include/c++/10.3.1/cmath ****     isunordered(_Tp __f1, _Tp __f2)
 943:/Applications/ARM/arm-none-eabi/include/c++/10.3.1/cmath ****     {
 944:/Applications/ARM/arm-none-eabi/include/c++/10.3.1/cmath ****       typedef typename __gnu_cxx::__promote<_Tp>::__type __type;
 945:/Applications/ARM/arm-none-eabi/include/c++/10.3.1/cmath ****       return __builtin_isunordered(__type(__f1), __type(__f2));
 946:/Applications/ARM/arm-none-eabi/include/c++/10.3.1/cmath ****     }
 947:/Applications/ARM/arm-none-eabi/include/c++/10.3.1/cmath **** 
 948:/Applications/ARM/arm-none-eabi/include/c++/10.3.1/cmath **** #endif // C++11
 949:/Applications/ARM/arm-none-eabi/include/c++/10.3.1/cmath **** #endif /* _GLIBCXX_USE_C99_FP_MACROS_DYNAMIC */
 950:/Applications/ARM/arm-none-eabi/include/c++/10.3.1/cmath **** #endif /* _GLIBCXX_USE_C99_MATH */
 951:/Applications/ARM/arm-none-eabi/include/c++/10.3.1/cmath **** 
 952:/Applications/ARM/arm-none-eabi/include/c++/10.3.1/cmath **** #if __cplusplus >= 201103L
 953:/Applications/ARM/arm-none-eabi/include/c++/10.3.1/cmath **** 
ARM GAS  /var/folders/nm/rdtk7lzx1rb7s7p13pzvn_qr0000gn/T//ccdQxqBE.s 			page 51


 954:/Applications/ARM/arm-none-eabi/include/c++/10.3.1/cmath **** #ifdef _GLIBCXX_USE_C99_MATH_TR1
 955:/Applications/ARM/arm-none-eabi/include/c++/10.3.1/cmath **** 
 956:/Applications/ARM/arm-none-eabi/include/c++/10.3.1/cmath **** #undef acosh
 957:/Applications/ARM/arm-none-eabi/include/c++/10.3.1/cmath **** #undef acoshf
 958:/Applications/ARM/arm-none-eabi/include/c++/10.3.1/cmath **** #undef acoshl
 959:/Applications/ARM/arm-none-eabi/include/c++/10.3.1/cmath **** #undef asinh
 960:/Applications/ARM/arm-none-eabi/include/c++/10.3.1/cmath **** #undef asinhf
 961:/Applications/ARM/arm-none-eabi/include/c++/10.3.1/cmath **** #undef asinhl
 962:/Applications/ARM/arm-none-eabi/include/c++/10.3.1/cmath **** #undef atanh
 963:/Applications/ARM/arm-none-eabi/include/c++/10.3.1/cmath **** #undef atanhf
 964:/Applications/ARM/arm-none-eabi/include/c++/10.3.1/cmath **** #undef atanhl
 965:/Applications/ARM/arm-none-eabi/include/c++/10.3.1/cmath **** #undef cbrt
 966:/Applications/ARM/arm-none-eabi/include/c++/10.3.1/cmath **** #undef cbrtf
 967:/Applications/ARM/arm-none-eabi/include/c++/10.3.1/cmath **** #undef cbrtl
 968:/Applications/ARM/arm-none-eabi/include/c++/10.3.1/cmath **** #undef copysign
 969:/Applications/ARM/arm-none-eabi/include/c++/10.3.1/cmath **** #undef copysignf
 970:/Applications/ARM/arm-none-eabi/include/c++/10.3.1/cmath **** #undef copysignl
 971:/Applications/ARM/arm-none-eabi/include/c++/10.3.1/cmath **** #undef erf
 972:/Applications/ARM/arm-none-eabi/include/c++/10.3.1/cmath **** #undef erff
 973:/Applications/ARM/arm-none-eabi/include/c++/10.3.1/cmath **** #undef erfl
 974:/Applications/ARM/arm-none-eabi/include/c++/10.3.1/cmath **** #undef erfc
 975:/Applications/ARM/arm-none-eabi/include/c++/10.3.1/cmath **** #undef erfcf
 976:/Applications/ARM/arm-none-eabi/include/c++/10.3.1/cmath **** #undef erfcl
 977:/Applications/ARM/arm-none-eabi/include/c++/10.3.1/cmath **** #undef exp2
 978:/Applications/ARM/arm-none-eabi/include/c++/10.3.1/cmath **** #undef exp2f
 979:/Applications/ARM/arm-none-eabi/include/c++/10.3.1/cmath **** #undef exp2l
 980:/Applications/ARM/arm-none-eabi/include/c++/10.3.1/cmath **** #undef expm1
 981:/Applications/ARM/arm-none-eabi/include/c++/10.3.1/cmath **** #undef expm1f
 982:/Applications/ARM/arm-none-eabi/include/c++/10.3.1/cmath **** #undef expm1l
 983:/Applications/ARM/arm-none-eabi/include/c++/10.3.1/cmath **** #undef fdim
 984:/Applications/ARM/arm-none-eabi/include/c++/10.3.1/cmath **** #undef fdimf
 985:/Applications/ARM/arm-none-eabi/include/c++/10.3.1/cmath **** #undef fdiml
 986:/Applications/ARM/arm-none-eabi/include/c++/10.3.1/cmath **** #undef fma
 987:/Applications/ARM/arm-none-eabi/include/c++/10.3.1/cmath **** #undef fmaf
 988:/Applications/ARM/arm-none-eabi/include/c++/10.3.1/cmath **** #undef fmal
 989:/Applications/ARM/arm-none-eabi/include/c++/10.3.1/cmath **** #undef fmax
 990:/Applications/ARM/arm-none-eabi/include/c++/10.3.1/cmath **** #undef fmaxf
 991:/Applications/ARM/arm-none-eabi/include/c++/10.3.1/cmath **** #undef fmaxl
 992:/Applications/ARM/arm-none-eabi/include/c++/10.3.1/cmath **** #undef fmin
 993:/Applications/ARM/arm-none-eabi/include/c++/10.3.1/cmath **** #undef fminf
 994:/Applications/ARM/arm-none-eabi/include/c++/10.3.1/cmath **** #undef fminl
 995:/Applications/ARM/arm-none-eabi/include/c++/10.3.1/cmath **** #undef hypot
 996:/Applications/ARM/arm-none-eabi/include/c++/10.3.1/cmath **** #undef hypotf
 997:/Applications/ARM/arm-none-eabi/include/c++/10.3.1/cmath **** #undef hypotl
 998:/Applications/ARM/arm-none-eabi/include/c++/10.3.1/cmath **** #undef ilogb
 999:/Applications/ARM/arm-none-eabi/include/c++/10.3.1/cmath **** #undef ilogbf
1000:/Applications/ARM/arm-none-eabi/include/c++/10.3.1/cmath **** #undef ilogbl
1001:/Applications/ARM/arm-none-eabi/include/c++/10.3.1/cmath **** #undef lgamma
1002:/Applications/ARM/arm-none-eabi/include/c++/10.3.1/cmath **** #undef lgammaf
1003:/Applications/ARM/arm-none-eabi/include/c++/10.3.1/cmath **** #undef lgammal
1004:/Applications/ARM/arm-none-eabi/include/c++/10.3.1/cmath **** #ifndef _GLIBCXX_NO_C99_ROUNDING_FUNCS
1005:/Applications/ARM/arm-none-eabi/include/c++/10.3.1/cmath **** #undef llrint
1006:/Applications/ARM/arm-none-eabi/include/c++/10.3.1/cmath **** #undef llrintf
1007:/Applications/ARM/arm-none-eabi/include/c++/10.3.1/cmath **** #undef llrintl
1008:/Applications/ARM/arm-none-eabi/include/c++/10.3.1/cmath **** #undef llround
1009:/Applications/ARM/arm-none-eabi/include/c++/10.3.1/cmath **** #undef llroundf
1010:/Applications/ARM/arm-none-eabi/include/c++/10.3.1/cmath **** #undef llroundl
ARM GAS  /var/folders/nm/rdtk7lzx1rb7s7p13pzvn_qr0000gn/T//ccdQxqBE.s 			page 52


1011:/Applications/ARM/arm-none-eabi/include/c++/10.3.1/cmath **** #endif
1012:/Applications/ARM/arm-none-eabi/include/c++/10.3.1/cmath **** #undef log1p
1013:/Applications/ARM/arm-none-eabi/include/c++/10.3.1/cmath **** #undef log1pf
1014:/Applications/ARM/arm-none-eabi/include/c++/10.3.1/cmath **** #undef log1pl
1015:/Applications/ARM/arm-none-eabi/include/c++/10.3.1/cmath **** #undef log2
1016:/Applications/ARM/arm-none-eabi/include/c++/10.3.1/cmath **** #undef log2f
1017:/Applications/ARM/arm-none-eabi/include/c++/10.3.1/cmath **** #undef log2l
1018:/Applications/ARM/arm-none-eabi/include/c++/10.3.1/cmath **** #undef logb
1019:/Applications/ARM/arm-none-eabi/include/c++/10.3.1/cmath **** #undef logbf
1020:/Applications/ARM/arm-none-eabi/include/c++/10.3.1/cmath **** #undef logbl
1021:/Applications/ARM/arm-none-eabi/include/c++/10.3.1/cmath **** #undef lrint
1022:/Applications/ARM/arm-none-eabi/include/c++/10.3.1/cmath **** #undef lrintf
1023:/Applications/ARM/arm-none-eabi/include/c++/10.3.1/cmath **** #undef lrintl
1024:/Applications/ARM/arm-none-eabi/include/c++/10.3.1/cmath **** #undef lround
1025:/Applications/ARM/arm-none-eabi/include/c++/10.3.1/cmath **** #undef lroundf
1026:/Applications/ARM/arm-none-eabi/include/c++/10.3.1/cmath **** #undef lroundl
1027:/Applications/ARM/arm-none-eabi/include/c++/10.3.1/cmath **** #undef nan
1028:/Applications/ARM/arm-none-eabi/include/c++/10.3.1/cmath **** #undef nanf
1029:/Applications/ARM/arm-none-eabi/include/c++/10.3.1/cmath **** #undef nanl
1030:/Applications/ARM/arm-none-eabi/include/c++/10.3.1/cmath **** #undef nearbyint
1031:/Applications/ARM/arm-none-eabi/include/c++/10.3.1/cmath **** #undef nearbyintf
1032:/Applications/ARM/arm-none-eabi/include/c++/10.3.1/cmath **** #undef nearbyintl
1033:/Applications/ARM/arm-none-eabi/include/c++/10.3.1/cmath **** #undef nextafter
1034:/Applications/ARM/arm-none-eabi/include/c++/10.3.1/cmath **** #undef nextafterf
1035:/Applications/ARM/arm-none-eabi/include/c++/10.3.1/cmath **** #undef nextafterl
1036:/Applications/ARM/arm-none-eabi/include/c++/10.3.1/cmath **** #undef nexttoward
1037:/Applications/ARM/arm-none-eabi/include/c++/10.3.1/cmath **** #undef nexttowardf
1038:/Applications/ARM/arm-none-eabi/include/c++/10.3.1/cmath **** #undef nexttowardl
1039:/Applications/ARM/arm-none-eabi/include/c++/10.3.1/cmath **** #undef remainder
1040:/Applications/ARM/arm-none-eabi/include/c++/10.3.1/cmath **** #undef remainderf
1041:/Applications/ARM/arm-none-eabi/include/c++/10.3.1/cmath **** #undef remainderl
1042:/Applications/ARM/arm-none-eabi/include/c++/10.3.1/cmath **** #undef remquo
1043:/Applications/ARM/arm-none-eabi/include/c++/10.3.1/cmath **** #undef remquof
1044:/Applications/ARM/arm-none-eabi/include/c++/10.3.1/cmath **** #undef remquol
1045:/Applications/ARM/arm-none-eabi/include/c++/10.3.1/cmath **** #undef rint
1046:/Applications/ARM/arm-none-eabi/include/c++/10.3.1/cmath **** #undef rintf
1047:/Applications/ARM/arm-none-eabi/include/c++/10.3.1/cmath **** #undef rintl
1048:/Applications/ARM/arm-none-eabi/include/c++/10.3.1/cmath **** #undef round
1049:/Applications/ARM/arm-none-eabi/include/c++/10.3.1/cmath **** #undef roundf
1050:/Applications/ARM/arm-none-eabi/include/c++/10.3.1/cmath **** #undef roundl
1051:/Applications/ARM/arm-none-eabi/include/c++/10.3.1/cmath **** #undef scalbln
1052:/Applications/ARM/arm-none-eabi/include/c++/10.3.1/cmath **** #undef scalblnf
1053:/Applications/ARM/arm-none-eabi/include/c++/10.3.1/cmath **** #undef scalblnl
1054:/Applications/ARM/arm-none-eabi/include/c++/10.3.1/cmath **** #undef scalbn
1055:/Applications/ARM/arm-none-eabi/include/c++/10.3.1/cmath **** #undef scalbnf
1056:/Applications/ARM/arm-none-eabi/include/c++/10.3.1/cmath **** #undef scalbnl
1057:/Applications/ARM/arm-none-eabi/include/c++/10.3.1/cmath **** #undef tgamma
1058:/Applications/ARM/arm-none-eabi/include/c++/10.3.1/cmath **** #undef tgammaf
1059:/Applications/ARM/arm-none-eabi/include/c++/10.3.1/cmath **** #undef tgammal
1060:/Applications/ARM/arm-none-eabi/include/c++/10.3.1/cmath **** #undef trunc
1061:/Applications/ARM/arm-none-eabi/include/c++/10.3.1/cmath **** #undef truncf
1062:/Applications/ARM/arm-none-eabi/include/c++/10.3.1/cmath **** #undef truncl
1063:/Applications/ARM/arm-none-eabi/include/c++/10.3.1/cmath **** 
1064:/Applications/ARM/arm-none-eabi/include/c++/10.3.1/cmath ****   // types
1065:/Applications/ARM/arm-none-eabi/include/c++/10.3.1/cmath ****   using ::double_t;
1066:/Applications/ARM/arm-none-eabi/include/c++/10.3.1/cmath ****   using ::float_t;
1067:/Applications/ARM/arm-none-eabi/include/c++/10.3.1/cmath **** 
ARM GAS  /var/folders/nm/rdtk7lzx1rb7s7p13pzvn_qr0000gn/T//ccdQxqBE.s 			page 53


1068:/Applications/ARM/arm-none-eabi/include/c++/10.3.1/cmath ****   // functions
1069:/Applications/ARM/arm-none-eabi/include/c++/10.3.1/cmath ****   using ::acosh;
1070:/Applications/ARM/arm-none-eabi/include/c++/10.3.1/cmath ****   using ::acoshf;
1071:/Applications/ARM/arm-none-eabi/include/c++/10.3.1/cmath ****   using ::acoshl;
1072:/Applications/ARM/arm-none-eabi/include/c++/10.3.1/cmath **** 
1073:/Applications/ARM/arm-none-eabi/include/c++/10.3.1/cmath ****   using ::asinh;
1074:/Applications/ARM/arm-none-eabi/include/c++/10.3.1/cmath ****   using ::asinhf;
1075:/Applications/ARM/arm-none-eabi/include/c++/10.3.1/cmath ****   using ::asinhl;
1076:/Applications/ARM/arm-none-eabi/include/c++/10.3.1/cmath **** 
1077:/Applications/ARM/arm-none-eabi/include/c++/10.3.1/cmath ****   using ::atanh;
1078:/Applications/ARM/arm-none-eabi/include/c++/10.3.1/cmath ****   using ::atanhf;
1079:/Applications/ARM/arm-none-eabi/include/c++/10.3.1/cmath ****   using ::atanhl;
1080:/Applications/ARM/arm-none-eabi/include/c++/10.3.1/cmath **** 
1081:/Applications/ARM/arm-none-eabi/include/c++/10.3.1/cmath ****   using ::cbrt;
1082:/Applications/ARM/arm-none-eabi/include/c++/10.3.1/cmath ****   using ::cbrtf;
1083:/Applications/ARM/arm-none-eabi/include/c++/10.3.1/cmath ****   using ::cbrtl;
1084:/Applications/ARM/arm-none-eabi/include/c++/10.3.1/cmath **** 
1085:/Applications/ARM/arm-none-eabi/include/c++/10.3.1/cmath ****   using ::copysign;
1086:/Applications/ARM/arm-none-eabi/include/c++/10.3.1/cmath ****   using ::copysignf;
1087:/Applications/ARM/arm-none-eabi/include/c++/10.3.1/cmath ****   using ::copysignl;
1088:/Applications/ARM/arm-none-eabi/include/c++/10.3.1/cmath **** 
1089:/Applications/ARM/arm-none-eabi/include/c++/10.3.1/cmath ****   using ::erf;
1090:/Applications/ARM/arm-none-eabi/include/c++/10.3.1/cmath ****   using ::erff;
1091:/Applications/ARM/arm-none-eabi/include/c++/10.3.1/cmath ****   using ::erfl;
1092:/Applications/ARM/arm-none-eabi/include/c++/10.3.1/cmath **** 
1093:/Applications/ARM/arm-none-eabi/include/c++/10.3.1/cmath ****   using ::erfc;
1094:/Applications/ARM/arm-none-eabi/include/c++/10.3.1/cmath ****   using ::erfcf;
1095:/Applications/ARM/arm-none-eabi/include/c++/10.3.1/cmath ****   using ::erfcl;
1096:/Applications/ARM/arm-none-eabi/include/c++/10.3.1/cmath **** 
1097:/Applications/ARM/arm-none-eabi/include/c++/10.3.1/cmath ****   using ::exp2;
1098:/Applications/ARM/arm-none-eabi/include/c++/10.3.1/cmath ****   using ::exp2f;
1099:/Applications/ARM/arm-none-eabi/include/c++/10.3.1/cmath ****   using ::exp2l;
1100:/Applications/ARM/arm-none-eabi/include/c++/10.3.1/cmath **** 
1101:/Applications/ARM/arm-none-eabi/include/c++/10.3.1/cmath ****   using ::expm1;
1102:/Applications/ARM/arm-none-eabi/include/c++/10.3.1/cmath ****   using ::expm1f;
1103:/Applications/ARM/arm-none-eabi/include/c++/10.3.1/cmath ****   using ::expm1l;
1104:/Applications/ARM/arm-none-eabi/include/c++/10.3.1/cmath **** 
1105:/Applications/ARM/arm-none-eabi/include/c++/10.3.1/cmath ****   using ::fdim;
1106:/Applications/ARM/arm-none-eabi/include/c++/10.3.1/cmath ****   using ::fdimf;
1107:/Applications/ARM/arm-none-eabi/include/c++/10.3.1/cmath ****   using ::fdiml;
1108:/Applications/ARM/arm-none-eabi/include/c++/10.3.1/cmath **** 
1109:/Applications/ARM/arm-none-eabi/include/c++/10.3.1/cmath ****   using ::fma;
1110:/Applications/ARM/arm-none-eabi/include/c++/10.3.1/cmath ****   using ::fmaf;
1111:/Applications/ARM/arm-none-eabi/include/c++/10.3.1/cmath ****   using ::fmal;
1112:/Applications/ARM/arm-none-eabi/include/c++/10.3.1/cmath **** 
1113:/Applications/ARM/arm-none-eabi/include/c++/10.3.1/cmath ****   using ::fmax;
1114:/Applications/ARM/arm-none-eabi/include/c++/10.3.1/cmath ****   using ::fmaxf;
1115:/Applications/ARM/arm-none-eabi/include/c++/10.3.1/cmath ****   using ::fmaxl;
1116:/Applications/ARM/arm-none-eabi/include/c++/10.3.1/cmath **** 
1117:/Applications/ARM/arm-none-eabi/include/c++/10.3.1/cmath ****   using ::fmin;
1118:/Applications/ARM/arm-none-eabi/include/c++/10.3.1/cmath ****   using ::fminf;
1119:/Applications/ARM/arm-none-eabi/include/c++/10.3.1/cmath ****   using ::fminl;
1120:/Applications/ARM/arm-none-eabi/include/c++/10.3.1/cmath **** 
1121:/Applications/ARM/arm-none-eabi/include/c++/10.3.1/cmath ****   using ::hypot;
1122:/Applications/ARM/arm-none-eabi/include/c++/10.3.1/cmath ****   using ::hypotf;
1123:/Applications/ARM/arm-none-eabi/include/c++/10.3.1/cmath ****   using ::hypotl;
1124:/Applications/ARM/arm-none-eabi/include/c++/10.3.1/cmath **** 
ARM GAS  /var/folders/nm/rdtk7lzx1rb7s7p13pzvn_qr0000gn/T//ccdQxqBE.s 			page 54


1125:/Applications/ARM/arm-none-eabi/include/c++/10.3.1/cmath ****   using ::ilogb;
1126:/Applications/ARM/arm-none-eabi/include/c++/10.3.1/cmath ****   using ::ilogbf;
1127:/Applications/ARM/arm-none-eabi/include/c++/10.3.1/cmath ****   using ::ilogbl;
1128:/Applications/ARM/arm-none-eabi/include/c++/10.3.1/cmath **** 
1129:/Applications/ARM/arm-none-eabi/include/c++/10.3.1/cmath ****   using ::lgamma;
1130:/Applications/ARM/arm-none-eabi/include/c++/10.3.1/cmath ****   using ::lgammaf;
1131:/Applications/ARM/arm-none-eabi/include/c++/10.3.1/cmath ****   using ::lgammal;
1132:/Applications/ARM/arm-none-eabi/include/c++/10.3.1/cmath **** 
1133:/Applications/ARM/arm-none-eabi/include/c++/10.3.1/cmath **** #ifndef _GLIBCXX_NO_C99_ROUNDING_FUNCS
1134:/Applications/ARM/arm-none-eabi/include/c++/10.3.1/cmath ****   using ::llrint;
1135:/Applications/ARM/arm-none-eabi/include/c++/10.3.1/cmath ****   using ::llrintf;
1136:/Applications/ARM/arm-none-eabi/include/c++/10.3.1/cmath ****   using ::llrintl;
1137:/Applications/ARM/arm-none-eabi/include/c++/10.3.1/cmath **** 
1138:/Applications/ARM/arm-none-eabi/include/c++/10.3.1/cmath ****   using ::llround;
1139:/Applications/ARM/arm-none-eabi/include/c++/10.3.1/cmath ****   using ::llroundf;
1140:/Applications/ARM/arm-none-eabi/include/c++/10.3.1/cmath ****   using ::llroundl;
1141:/Applications/ARM/arm-none-eabi/include/c++/10.3.1/cmath **** #endif
1142:/Applications/ARM/arm-none-eabi/include/c++/10.3.1/cmath **** 
1143:/Applications/ARM/arm-none-eabi/include/c++/10.3.1/cmath ****   using ::log1p;
1144:/Applications/ARM/arm-none-eabi/include/c++/10.3.1/cmath ****   using ::log1pf;
1145:/Applications/ARM/arm-none-eabi/include/c++/10.3.1/cmath ****   using ::log1pl;
1146:/Applications/ARM/arm-none-eabi/include/c++/10.3.1/cmath **** 
1147:/Applications/ARM/arm-none-eabi/include/c++/10.3.1/cmath ****   using ::log2;
1148:/Applications/ARM/arm-none-eabi/include/c++/10.3.1/cmath ****   using ::log2f;
1149:/Applications/ARM/arm-none-eabi/include/c++/10.3.1/cmath ****   using ::log2l;
1150:/Applications/ARM/arm-none-eabi/include/c++/10.3.1/cmath **** 
1151:/Applications/ARM/arm-none-eabi/include/c++/10.3.1/cmath ****   using ::logb;
1152:/Applications/ARM/arm-none-eabi/include/c++/10.3.1/cmath ****   using ::logbf;
1153:/Applications/ARM/arm-none-eabi/include/c++/10.3.1/cmath ****   using ::logbl;
1154:/Applications/ARM/arm-none-eabi/include/c++/10.3.1/cmath **** 
1155:/Applications/ARM/arm-none-eabi/include/c++/10.3.1/cmath ****   using ::lrint;
1156:/Applications/ARM/arm-none-eabi/include/c++/10.3.1/cmath ****   using ::lrintf;
1157:/Applications/ARM/arm-none-eabi/include/c++/10.3.1/cmath ****   using ::lrintl;
1158:/Applications/ARM/arm-none-eabi/include/c++/10.3.1/cmath **** 
1159:/Applications/ARM/arm-none-eabi/include/c++/10.3.1/cmath ****   using ::lround;
1160:/Applications/ARM/arm-none-eabi/include/c++/10.3.1/cmath ****   using ::lroundf;
1161:/Applications/ARM/arm-none-eabi/include/c++/10.3.1/cmath ****   using ::lroundl;
1162:/Applications/ARM/arm-none-eabi/include/c++/10.3.1/cmath **** 
1163:/Applications/ARM/arm-none-eabi/include/c++/10.3.1/cmath ****   using ::nan;
1164:/Applications/ARM/arm-none-eabi/include/c++/10.3.1/cmath ****   using ::nanf;
1165:/Applications/ARM/arm-none-eabi/include/c++/10.3.1/cmath ****   using ::nanl;
1166:/Applications/ARM/arm-none-eabi/include/c++/10.3.1/cmath **** 
1167:/Applications/ARM/arm-none-eabi/include/c++/10.3.1/cmath ****   using ::nearbyint;
1168:/Applications/ARM/arm-none-eabi/include/c++/10.3.1/cmath ****   using ::nearbyintf;
1169:/Applications/ARM/arm-none-eabi/include/c++/10.3.1/cmath ****   using ::nearbyintl;
1170:/Applications/ARM/arm-none-eabi/include/c++/10.3.1/cmath **** 
1171:/Applications/ARM/arm-none-eabi/include/c++/10.3.1/cmath ****   using ::nextafter;
1172:/Applications/ARM/arm-none-eabi/include/c++/10.3.1/cmath ****   using ::nextafterf;
1173:/Applications/ARM/arm-none-eabi/include/c++/10.3.1/cmath ****   using ::nextafterl;
1174:/Applications/ARM/arm-none-eabi/include/c++/10.3.1/cmath **** 
1175:/Applications/ARM/arm-none-eabi/include/c++/10.3.1/cmath ****   using ::nexttoward;
1176:/Applications/ARM/arm-none-eabi/include/c++/10.3.1/cmath ****   using ::nexttowardf;
1177:/Applications/ARM/arm-none-eabi/include/c++/10.3.1/cmath ****   using ::nexttowardl;
1178:/Applications/ARM/arm-none-eabi/include/c++/10.3.1/cmath **** 
1179:/Applications/ARM/arm-none-eabi/include/c++/10.3.1/cmath ****   using ::remainder;
1180:/Applications/ARM/arm-none-eabi/include/c++/10.3.1/cmath ****   using ::remainderf;
1181:/Applications/ARM/arm-none-eabi/include/c++/10.3.1/cmath ****   using ::remainderl;
ARM GAS  /var/folders/nm/rdtk7lzx1rb7s7p13pzvn_qr0000gn/T//ccdQxqBE.s 			page 55


1182:/Applications/ARM/arm-none-eabi/include/c++/10.3.1/cmath **** 
1183:/Applications/ARM/arm-none-eabi/include/c++/10.3.1/cmath ****   using ::remquo;
1184:/Applications/ARM/arm-none-eabi/include/c++/10.3.1/cmath ****   using ::remquof;
1185:/Applications/ARM/arm-none-eabi/include/c++/10.3.1/cmath ****   using ::remquol;
1186:/Applications/ARM/arm-none-eabi/include/c++/10.3.1/cmath **** 
1187:/Applications/ARM/arm-none-eabi/include/c++/10.3.1/cmath ****   using ::rint;
1188:/Applications/ARM/arm-none-eabi/include/c++/10.3.1/cmath ****   using ::rintf;
1189:/Applications/ARM/arm-none-eabi/include/c++/10.3.1/cmath ****   using ::rintl;
1190:/Applications/ARM/arm-none-eabi/include/c++/10.3.1/cmath **** 
1191:/Applications/ARM/arm-none-eabi/include/c++/10.3.1/cmath ****   using ::round;
1192:/Applications/ARM/arm-none-eabi/include/c++/10.3.1/cmath ****   using ::roundf;
1193:/Applications/ARM/arm-none-eabi/include/c++/10.3.1/cmath ****   using ::roundl;
1194:/Applications/ARM/arm-none-eabi/include/c++/10.3.1/cmath **** 
1195:/Applications/ARM/arm-none-eabi/include/c++/10.3.1/cmath ****   using ::scalbln;
1196:/Applications/ARM/arm-none-eabi/include/c++/10.3.1/cmath ****   using ::scalblnf;
1197:/Applications/ARM/arm-none-eabi/include/c++/10.3.1/cmath ****   using ::scalblnl;
1198:/Applications/ARM/arm-none-eabi/include/c++/10.3.1/cmath **** 
1199:/Applications/ARM/arm-none-eabi/include/c++/10.3.1/cmath ****   using ::scalbn;
1200:/Applications/ARM/arm-none-eabi/include/c++/10.3.1/cmath ****   using ::scalbnf;
1201:/Applications/ARM/arm-none-eabi/include/c++/10.3.1/cmath ****   using ::scalbnl;
1202:/Applications/ARM/arm-none-eabi/include/c++/10.3.1/cmath **** 
1203:/Applications/ARM/arm-none-eabi/include/c++/10.3.1/cmath ****   using ::tgamma;
1204:/Applications/ARM/arm-none-eabi/include/c++/10.3.1/cmath ****   using ::tgammaf;
1205:/Applications/ARM/arm-none-eabi/include/c++/10.3.1/cmath ****   using ::tgammal;
1206:/Applications/ARM/arm-none-eabi/include/c++/10.3.1/cmath **** 
1207:/Applications/ARM/arm-none-eabi/include/c++/10.3.1/cmath ****   using ::trunc;
1208:/Applications/ARM/arm-none-eabi/include/c++/10.3.1/cmath ****   using ::truncf;
1209:/Applications/ARM/arm-none-eabi/include/c++/10.3.1/cmath ****   using ::truncl;
1210:/Applications/ARM/arm-none-eabi/include/c++/10.3.1/cmath **** 
1211:/Applications/ARM/arm-none-eabi/include/c++/10.3.1/cmath ****   /// Additional overloads.
1212:/Applications/ARM/arm-none-eabi/include/c++/10.3.1/cmath **** #ifndef __CORRECT_ISO_CPP11_MATH_H_PROTO_FP
1213:/Applications/ARM/arm-none-eabi/include/c++/10.3.1/cmath ****   constexpr float
1214:/Applications/ARM/arm-none-eabi/include/c++/10.3.1/cmath ****   acosh(float __x)
1215:/Applications/ARM/arm-none-eabi/include/c++/10.3.1/cmath ****   { return __builtin_acoshf(__x); }
1216:/Applications/ARM/arm-none-eabi/include/c++/10.3.1/cmath **** 
1217:/Applications/ARM/arm-none-eabi/include/c++/10.3.1/cmath ****   constexpr long double
1218:/Applications/ARM/arm-none-eabi/include/c++/10.3.1/cmath ****   acosh(long double __x)
1219:/Applications/ARM/arm-none-eabi/include/c++/10.3.1/cmath ****   { return __builtin_acoshl(__x); }
1220:/Applications/ARM/arm-none-eabi/include/c++/10.3.1/cmath **** #endif
1221:/Applications/ARM/arm-none-eabi/include/c++/10.3.1/cmath **** 
1222:/Applications/ARM/arm-none-eabi/include/c++/10.3.1/cmath **** #ifndef __CORRECT_ISO_CPP11_MATH_H_PROTO_INT
1223:/Applications/ARM/arm-none-eabi/include/c++/10.3.1/cmath ****   template<typename _Tp>
1224:/Applications/ARM/arm-none-eabi/include/c++/10.3.1/cmath ****     constexpr typename __gnu_cxx::__enable_if<__is_integer<_Tp>::__value, 
1225:/Applications/ARM/arm-none-eabi/include/c++/10.3.1/cmath ****                                               double>::__type
1226:/Applications/ARM/arm-none-eabi/include/c++/10.3.1/cmath ****     acosh(_Tp __x)
1227:/Applications/ARM/arm-none-eabi/include/c++/10.3.1/cmath ****     { return __builtin_acosh(__x); }
1228:/Applications/ARM/arm-none-eabi/include/c++/10.3.1/cmath **** #endif
1229:/Applications/ARM/arm-none-eabi/include/c++/10.3.1/cmath **** 
1230:/Applications/ARM/arm-none-eabi/include/c++/10.3.1/cmath **** #ifndef __CORRECT_ISO_CPP11_MATH_H_PROTO_FP
1231:/Applications/ARM/arm-none-eabi/include/c++/10.3.1/cmath ****   constexpr float
1232:/Applications/ARM/arm-none-eabi/include/c++/10.3.1/cmath ****   asinh(float __x)
1233:/Applications/ARM/arm-none-eabi/include/c++/10.3.1/cmath ****   { return __builtin_asinhf(__x); }
1234:/Applications/ARM/arm-none-eabi/include/c++/10.3.1/cmath **** 
1235:/Applications/ARM/arm-none-eabi/include/c++/10.3.1/cmath ****   constexpr long double
1236:/Applications/ARM/arm-none-eabi/include/c++/10.3.1/cmath ****   asinh(long double __x)
1237:/Applications/ARM/arm-none-eabi/include/c++/10.3.1/cmath ****   { return __builtin_asinhl(__x); }
1238:/Applications/ARM/arm-none-eabi/include/c++/10.3.1/cmath **** #endif
ARM GAS  /var/folders/nm/rdtk7lzx1rb7s7p13pzvn_qr0000gn/T//ccdQxqBE.s 			page 56


1239:/Applications/ARM/arm-none-eabi/include/c++/10.3.1/cmath **** 
1240:/Applications/ARM/arm-none-eabi/include/c++/10.3.1/cmath **** #ifndef __CORRECT_ISO_CPP11_MATH_H_PROTO_INT
1241:/Applications/ARM/arm-none-eabi/include/c++/10.3.1/cmath ****   template<typename _Tp>
1242:/Applications/ARM/arm-none-eabi/include/c++/10.3.1/cmath ****     constexpr typename __gnu_cxx::__enable_if<__is_integer<_Tp>::__value, 
1243:/Applications/ARM/arm-none-eabi/include/c++/10.3.1/cmath ****                                               double>::__type
1244:/Applications/ARM/arm-none-eabi/include/c++/10.3.1/cmath ****     asinh(_Tp __x)
1245:/Applications/ARM/arm-none-eabi/include/c++/10.3.1/cmath ****     { return __builtin_asinh(__x); }
1246:/Applications/ARM/arm-none-eabi/include/c++/10.3.1/cmath **** #endif
1247:/Applications/ARM/arm-none-eabi/include/c++/10.3.1/cmath **** 
1248:/Applications/ARM/arm-none-eabi/include/c++/10.3.1/cmath **** #ifndef __CORRECT_ISO_CPP11_MATH_H_PROTO_FP
1249:/Applications/ARM/arm-none-eabi/include/c++/10.3.1/cmath ****   constexpr float
1250:/Applications/ARM/arm-none-eabi/include/c++/10.3.1/cmath ****   atanh(float __x)
1251:/Applications/ARM/arm-none-eabi/include/c++/10.3.1/cmath ****   { return __builtin_atanhf(__x); }
1252:/Applications/ARM/arm-none-eabi/include/c++/10.3.1/cmath **** 
1253:/Applications/ARM/arm-none-eabi/include/c++/10.3.1/cmath ****   constexpr long double
1254:/Applications/ARM/arm-none-eabi/include/c++/10.3.1/cmath ****   atanh(long double __x)
1255:/Applications/ARM/arm-none-eabi/include/c++/10.3.1/cmath ****   { return __builtin_atanhl(__x); }
1256:/Applications/ARM/arm-none-eabi/include/c++/10.3.1/cmath **** #endif
1257:/Applications/ARM/arm-none-eabi/include/c++/10.3.1/cmath **** 
1258:/Applications/ARM/arm-none-eabi/include/c++/10.3.1/cmath **** #ifndef __CORRECT_ISO_CPP11_MATH_H_PROTO_INT
1259:/Applications/ARM/arm-none-eabi/include/c++/10.3.1/cmath ****   template<typename _Tp>
1260:/Applications/ARM/arm-none-eabi/include/c++/10.3.1/cmath ****     constexpr typename __gnu_cxx::__enable_if<__is_integer<_Tp>::__value, 
1261:/Applications/ARM/arm-none-eabi/include/c++/10.3.1/cmath ****                                               double>::__type
1262:/Applications/ARM/arm-none-eabi/include/c++/10.3.1/cmath ****     atanh(_Tp __x)
1263:/Applications/ARM/arm-none-eabi/include/c++/10.3.1/cmath ****     { return __builtin_atanh(__x); }
1264:/Applications/ARM/arm-none-eabi/include/c++/10.3.1/cmath **** #endif
1265:/Applications/ARM/arm-none-eabi/include/c++/10.3.1/cmath **** 
1266:/Applications/ARM/arm-none-eabi/include/c++/10.3.1/cmath **** #ifndef __CORRECT_ISO_CPP11_MATH_H_PROTO_FP
1267:/Applications/ARM/arm-none-eabi/include/c++/10.3.1/cmath ****   constexpr float
1268:/Applications/ARM/arm-none-eabi/include/c++/10.3.1/cmath ****   cbrt(float __x)
1269:/Applications/ARM/arm-none-eabi/include/c++/10.3.1/cmath ****   { return __builtin_cbrtf(__x); }
1270:/Applications/ARM/arm-none-eabi/include/c++/10.3.1/cmath **** 
1271:/Applications/ARM/arm-none-eabi/include/c++/10.3.1/cmath ****   constexpr long double
1272:/Applications/ARM/arm-none-eabi/include/c++/10.3.1/cmath ****   cbrt(long double __x)
1273:/Applications/ARM/arm-none-eabi/include/c++/10.3.1/cmath ****   { return __builtin_cbrtl(__x); }
1274:/Applications/ARM/arm-none-eabi/include/c++/10.3.1/cmath **** #endif
1275:/Applications/ARM/arm-none-eabi/include/c++/10.3.1/cmath **** 
1276:/Applications/ARM/arm-none-eabi/include/c++/10.3.1/cmath **** #ifndef __CORRECT_ISO_CPP11_MATH_H_PROTO_INT
1277:/Applications/ARM/arm-none-eabi/include/c++/10.3.1/cmath ****   template<typename _Tp>
1278:/Applications/ARM/arm-none-eabi/include/c++/10.3.1/cmath ****     constexpr typename __gnu_cxx::__enable_if<__is_integer<_Tp>::__value, 
1279:/Applications/ARM/arm-none-eabi/include/c++/10.3.1/cmath ****                                               double>::__type
1280:/Applications/ARM/arm-none-eabi/include/c++/10.3.1/cmath ****     cbrt(_Tp __x)
1281:/Applications/ARM/arm-none-eabi/include/c++/10.3.1/cmath ****     { return __builtin_cbrt(__x); }
1282:/Applications/ARM/arm-none-eabi/include/c++/10.3.1/cmath **** #endif
1283:/Applications/ARM/arm-none-eabi/include/c++/10.3.1/cmath **** 
1284:/Applications/ARM/arm-none-eabi/include/c++/10.3.1/cmath **** #ifndef __CORRECT_ISO_CPP11_MATH_H_PROTO_FP
1285:/Applications/ARM/arm-none-eabi/include/c++/10.3.1/cmath ****   constexpr float
1286:/Applications/ARM/arm-none-eabi/include/c++/10.3.1/cmath ****   copysign(float __x, float __y)
1287:/Applications/ARM/arm-none-eabi/include/c++/10.3.1/cmath ****   { return __builtin_copysignf(__x, __y); }
1288:/Applications/ARM/arm-none-eabi/include/c++/10.3.1/cmath **** 
1289:/Applications/ARM/arm-none-eabi/include/c++/10.3.1/cmath ****   constexpr long double
1290:/Applications/ARM/arm-none-eabi/include/c++/10.3.1/cmath ****   copysign(long double __x, long double __y)
1291:/Applications/ARM/arm-none-eabi/include/c++/10.3.1/cmath ****   { return __builtin_copysignl(__x, __y); }
1292:/Applications/ARM/arm-none-eabi/include/c++/10.3.1/cmath **** #endif
1293:/Applications/ARM/arm-none-eabi/include/c++/10.3.1/cmath **** 
1294:/Applications/ARM/arm-none-eabi/include/c++/10.3.1/cmath **** #ifndef __CORRECT_ISO_CPP11_MATH_H_PROTO_INT
1295:/Applications/ARM/arm-none-eabi/include/c++/10.3.1/cmath ****   template<typename _Tp, typename _Up>
ARM GAS  /var/folders/nm/rdtk7lzx1rb7s7p13pzvn_qr0000gn/T//ccdQxqBE.s 			page 57


1296:/Applications/ARM/arm-none-eabi/include/c++/10.3.1/cmath ****     constexpr typename __gnu_cxx::__promote_2<_Tp, _Up>::__type
1297:/Applications/ARM/arm-none-eabi/include/c++/10.3.1/cmath ****     copysign(_Tp __x, _Up __y)
1298:/Applications/ARM/arm-none-eabi/include/c++/10.3.1/cmath ****     {
1299:/Applications/ARM/arm-none-eabi/include/c++/10.3.1/cmath ****       typedef typename __gnu_cxx::__promote_2<_Tp, _Up>::__type __type;
1300:/Applications/ARM/arm-none-eabi/include/c++/10.3.1/cmath ****       return copysign(__type(__x), __type(__y));
1301:/Applications/ARM/arm-none-eabi/include/c++/10.3.1/cmath ****     }
1302:/Applications/ARM/arm-none-eabi/include/c++/10.3.1/cmath **** #endif
1303:/Applications/ARM/arm-none-eabi/include/c++/10.3.1/cmath **** 
1304:/Applications/ARM/arm-none-eabi/include/c++/10.3.1/cmath **** #ifndef __CORRECT_ISO_CPP11_MATH_H_PROTO_FP
1305:/Applications/ARM/arm-none-eabi/include/c++/10.3.1/cmath ****   constexpr float
1306:/Applications/ARM/arm-none-eabi/include/c++/10.3.1/cmath ****   erf(float __x)
1307:/Applications/ARM/arm-none-eabi/include/c++/10.3.1/cmath ****   { return __builtin_erff(__x); }
1308:/Applications/ARM/arm-none-eabi/include/c++/10.3.1/cmath **** 
1309:/Applications/ARM/arm-none-eabi/include/c++/10.3.1/cmath ****   constexpr long double
1310:/Applications/ARM/arm-none-eabi/include/c++/10.3.1/cmath ****   erf(long double __x)
1311:/Applications/ARM/arm-none-eabi/include/c++/10.3.1/cmath ****   { return __builtin_erfl(__x); }
1312:/Applications/ARM/arm-none-eabi/include/c++/10.3.1/cmath **** #endif
1313:/Applications/ARM/arm-none-eabi/include/c++/10.3.1/cmath **** 
1314:/Applications/ARM/arm-none-eabi/include/c++/10.3.1/cmath **** #ifndef __CORRECT_ISO_CPP11_MATH_H_PROTO_INT
1315:/Applications/ARM/arm-none-eabi/include/c++/10.3.1/cmath ****   template<typename _Tp>
1316:/Applications/ARM/arm-none-eabi/include/c++/10.3.1/cmath ****     constexpr typename __gnu_cxx::__enable_if<__is_integer<_Tp>::__value, 
1317:/Applications/ARM/arm-none-eabi/include/c++/10.3.1/cmath ****                                               double>::__type
1318:/Applications/ARM/arm-none-eabi/include/c++/10.3.1/cmath ****     erf(_Tp __x)
1319:/Applications/ARM/arm-none-eabi/include/c++/10.3.1/cmath ****     { return __builtin_erf(__x); }
1320:/Applications/ARM/arm-none-eabi/include/c++/10.3.1/cmath **** #endif
1321:/Applications/ARM/arm-none-eabi/include/c++/10.3.1/cmath **** 
1322:/Applications/ARM/arm-none-eabi/include/c++/10.3.1/cmath **** #ifndef __CORRECT_ISO_CPP11_MATH_H_PROTO_FP
1323:/Applications/ARM/arm-none-eabi/include/c++/10.3.1/cmath ****   constexpr float
1324:/Applications/ARM/arm-none-eabi/include/c++/10.3.1/cmath ****   erfc(float __x)
1325:/Applications/ARM/arm-none-eabi/include/c++/10.3.1/cmath ****   { return __builtin_erfcf(__x); }
1326:/Applications/ARM/arm-none-eabi/include/c++/10.3.1/cmath **** 
1327:/Applications/ARM/arm-none-eabi/include/c++/10.3.1/cmath ****   constexpr long double
1328:/Applications/ARM/arm-none-eabi/include/c++/10.3.1/cmath ****   erfc(long double __x)
1329:/Applications/ARM/arm-none-eabi/include/c++/10.3.1/cmath ****   { return __builtin_erfcl(__x); }
1330:/Applications/ARM/arm-none-eabi/include/c++/10.3.1/cmath **** #endif
1331:/Applications/ARM/arm-none-eabi/include/c++/10.3.1/cmath **** 
1332:/Applications/ARM/arm-none-eabi/include/c++/10.3.1/cmath **** #ifndef __CORRECT_ISO_CPP11_MATH_H_PROTO_INT
1333:/Applications/ARM/arm-none-eabi/include/c++/10.3.1/cmath ****   template<typename _Tp>
1334:/Applications/ARM/arm-none-eabi/include/c++/10.3.1/cmath ****     constexpr typename __gnu_cxx::__enable_if<__is_integer<_Tp>::__value, 
1335:/Applications/ARM/arm-none-eabi/include/c++/10.3.1/cmath ****                                               double>::__type
1336:/Applications/ARM/arm-none-eabi/include/c++/10.3.1/cmath ****     erfc(_Tp __x)
1337:/Applications/ARM/arm-none-eabi/include/c++/10.3.1/cmath ****     { return __builtin_erfc(__x); }
1338:/Applications/ARM/arm-none-eabi/include/c++/10.3.1/cmath **** #endif
1339:/Applications/ARM/arm-none-eabi/include/c++/10.3.1/cmath **** 
1340:/Applications/ARM/arm-none-eabi/include/c++/10.3.1/cmath **** #ifndef __CORRECT_ISO_CPP11_MATH_H_PROTO_FP
1341:/Applications/ARM/arm-none-eabi/include/c++/10.3.1/cmath ****   constexpr float
1342:/Applications/ARM/arm-none-eabi/include/c++/10.3.1/cmath ****   exp2(float __x)
1343:/Applications/ARM/arm-none-eabi/include/c++/10.3.1/cmath ****   { return __builtin_exp2f(__x); }
1344:/Applications/ARM/arm-none-eabi/include/c++/10.3.1/cmath **** 
1345:/Applications/ARM/arm-none-eabi/include/c++/10.3.1/cmath ****   constexpr long double
1346:/Applications/ARM/arm-none-eabi/include/c++/10.3.1/cmath ****   exp2(long double __x)
1347:/Applications/ARM/arm-none-eabi/include/c++/10.3.1/cmath ****   { return __builtin_exp2l(__x); }
1348:/Applications/ARM/arm-none-eabi/include/c++/10.3.1/cmath **** #endif
1349:/Applications/ARM/arm-none-eabi/include/c++/10.3.1/cmath **** 
1350:/Applications/ARM/arm-none-eabi/include/c++/10.3.1/cmath **** #ifndef __CORRECT_ISO_CPP11_MATH_H_PROTO_INT
1351:/Applications/ARM/arm-none-eabi/include/c++/10.3.1/cmath ****   template<typename _Tp>
1352:/Applications/ARM/arm-none-eabi/include/c++/10.3.1/cmath ****     constexpr typename __gnu_cxx::__enable_if<__is_integer<_Tp>::__value, 
ARM GAS  /var/folders/nm/rdtk7lzx1rb7s7p13pzvn_qr0000gn/T//ccdQxqBE.s 			page 58


1353:/Applications/ARM/arm-none-eabi/include/c++/10.3.1/cmath ****                                               double>::__type
1354:/Applications/ARM/arm-none-eabi/include/c++/10.3.1/cmath ****     exp2(_Tp __x)
1355:/Applications/ARM/arm-none-eabi/include/c++/10.3.1/cmath ****     { return __builtin_exp2(__x); }
1356:/Applications/ARM/arm-none-eabi/include/c++/10.3.1/cmath **** #endif
1357:/Applications/ARM/arm-none-eabi/include/c++/10.3.1/cmath **** 
1358:/Applications/ARM/arm-none-eabi/include/c++/10.3.1/cmath **** #ifndef __CORRECT_ISO_CPP11_MATH_H_PROTO_FP
1359:/Applications/ARM/arm-none-eabi/include/c++/10.3.1/cmath ****   constexpr float
1360:/Applications/ARM/arm-none-eabi/include/c++/10.3.1/cmath ****   expm1(float __x)
1361:/Applications/ARM/arm-none-eabi/include/c++/10.3.1/cmath ****   { return __builtin_expm1f(__x); }
1362:/Applications/ARM/arm-none-eabi/include/c++/10.3.1/cmath **** 
1363:/Applications/ARM/arm-none-eabi/include/c++/10.3.1/cmath ****   constexpr long double
1364:/Applications/ARM/arm-none-eabi/include/c++/10.3.1/cmath ****   expm1(long double __x)
1365:/Applications/ARM/arm-none-eabi/include/c++/10.3.1/cmath ****   { return __builtin_expm1l(__x); }
1366:/Applications/ARM/arm-none-eabi/include/c++/10.3.1/cmath **** #endif
1367:/Applications/ARM/arm-none-eabi/include/c++/10.3.1/cmath **** 
1368:/Applications/ARM/arm-none-eabi/include/c++/10.3.1/cmath **** #ifndef __CORRECT_ISO_CPP11_MATH_H_PROTO_INT
1369:/Applications/ARM/arm-none-eabi/include/c++/10.3.1/cmath ****   template<typename _Tp>
1370:/Applications/ARM/arm-none-eabi/include/c++/10.3.1/cmath ****     constexpr typename __gnu_cxx::__enable_if<__is_integer<_Tp>::__value, 
1371:/Applications/ARM/arm-none-eabi/include/c++/10.3.1/cmath ****                                               double>::__type
1372:/Applications/ARM/arm-none-eabi/include/c++/10.3.1/cmath ****     expm1(_Tp __x)
1373:/Applications/ARM/arm-none-eabi/include/c++/10.3.1/cmath ****     { return __builtin_expm1(__x); }
1374:/Applications/ARM/arm-none-eabi/include/c++/10.3.1/cmath **** #endif
1375:/Applications/ARM/arm-none-eabi/include/c++/10.3.1/cmath **** 
1376:/Applications/ARM/arm-none-eabi/include/c++/10.3.1/cmath **** #ifndef __CORRECT_ISO_CPP11_MATH_H_PROTO_FP
1377:/Applications/ARM/arm-none-eabi/include/c++/10.3.1/cmath ****   constexpr float
1378:/Applications/ARM/arm-none-eabi/include/c++/10.3.1/cmath ****   fdim(float __x, float __y)
1379:/Applications/ARM/arm-none-eabi/include/c++/10.3.1/cmath ****   { return __builtin_fdimf(__x, __y); }
1380:/Applications/ARM/arm-none-eabi/include/c++/10.3.1/cmath **** 
1381:/Applications/ARM/arm-none-eabi/include/c++/10.3.1/cmath ****   constexpr long double
1382:/Applications/ARM/arm-none-eabi/include/c++/10.3.1/cmath ****   fdim(long double __x, long double __y)
1383:/Applications/ARM/arm-none-eabi/include/c++/10.3.1/cmath ****   { return __builtin_fdiml(__x, __y); }
1384:/Applications/ARM/arm-none-eabi/include/c++/10.3.1/cmath **** #endif
1385:/Applications/ARM/arm-none-eabi/include/c++/10.3.1/cmath **** 
1386:/Applications/ARM/arm-none-eabi/include/c++/10.3.1/cmath **** #ifndef __CORRECT_ISO_CPP11_MATH_H_PROTO_INT
1387:/Applications/ARM/arm-none-eabi/include/c++/10.3.1/cmath ****   template<typename _Tp, typename _Up>
1388:/Applications/ARM/arm-none-eabi/include/c++/10.3.1/cmath ****     constexpr typename __gnu_cxx::__promote_2<_Tp, _Up>::__type
1389:/Applications/ARM/arm-none-eabi/include/c++/10.3.1/cmath ****     fdim(_Tp __x, _Up __y)
1390:/Applications/ARM/arm-none-eabi/include/c++/10.3.1/cmath ****     {
1391:/Applications/ARM/arm-none-eabi/include/c++/10.3.1/cmath ****       typedef typename __gnu_cxx::__promote_2<_Tp, _Up>::__type __type;
1392:/Applications/ARM/arm-none-eabi/include/c++/10.3.1/cmath ****       return fdim(__type(__x), __type(__y));
1393:/Applications/ARM/arm-none-eabi/include/c++/10.3.1/cmath ****     }
1394:/Applications/ARM/arm-none-eabi/include/c++/10.3.1/cmath **** #endif
1395:/Applications/ARM/arm-none-eabi/include/c++/10.3.1/cmath **** 
1396:/Applications/ARM/arm-none-eabi/include/c++/10.3.1/cmath **** #ifndef __CORRECT_ISO_CPP11_MATH_H_PROTO_FP
1397:/Applications/ARM/arm-none-eabi/include/c++/10.3.1/cmath ****   constexpr float
1398:/Applications/ARM/arm-none-eabi/include/c++/10.3.1/cmath ****   fma(float __x, float __y, float __z)
1399:/Applications/ARM/arm-none-eabi/include/c++/10.3.1/cmath ****   { return __builtin_fmaf(__x, __y, __z); }
1400:/Applications/ARM/arm-none-eabi/include/c++/10.3.1/cmath **** 
1401:/Applications/ARM/arm-none-eabi/include/c++/10.3.1/cmath ****   constexpr long double
1402:/Applications/ARM/arm-none-eabi/include/c++/10.3.1/cmath ****   fma(long double __x, long double __y, long double __z)
1403:/Applications/ARM/arm-none-eabi/include/c++/10.3.1/cmath ****   { return __builtin_fmal(__x, __y, __z); }
1404:/Applications/ARM/arm-none-eabi/include/c++/10.3.1/cmath **** #endif
1405:/Applications/ARM/arm-none-eabi/include/c++/10.3.1/cmath **** 
1406:/Applications/ARM/arm-none-eabi/include/c++/10.3.1/cmath **** #ifndef __CORRECT_ISO_CPP11_MATH_H_PROTO_INT
1407:/Applications/ARM/arm-none-eabi/include/c++/10.3.1/cmath ****   template<typename _Tp, typename _Up, typename _Vp>
1408:/Applications/ARM/arm-none-eabi/include/c++/10.3.1/cmath ****     constexpr typename __gnu_cxx::__promote_3<_Tp, _Up, _Vp>::__type
1409:/Applications/ARM/arm-none-eabi/include/c++/10.3.1/cmath ****     fma(_Tp __x, _Up __y, _Vp __z)
ARM GAS  /var/folders/nm/rdtk7lzx1rb7s7p13pzvn_qr0000gn/T//ccdQxqBE.s 			page 59


1410:/Applications/ARM/arm-none-eabi/include/c++/10.3.1/cmath ****     {
1411:/Applications/ARM/arm-none-eabi/include/c++/10.3.1/cmath ****       typedef typename __gnu_cxx::__promote_3<_Tp, _Up, _Vp>::__type __type;
1412:/Applications/ARM/arm-none-eabi/include/c++/10.3.1/cmath ****       return fma(__type(__x), __type(__y), __type(__z));
1413:/Applications/ARM/arm-none-eabi/include/c++/10.3.1/cmath ****     }
1414:/Applications/ARM/arm-none-eabi/include/c++/10.3.1/cmath **** #endif
1415:/Applications/ARM/arm-none-eabi/include/c++/10.3.1/cmath **** 
1416:/Applications/ARM/arm-none-eabi/include/c++/10.3.1/cmath **** #ifndef __CORRECT_ISO_CPP11_MATH_H_PROTO_FP
1417:/Applications/ARM/arm-none-eabi/include/c++/10.3.1/cmath ****   constexpr float
1418:/Applications/ARM/arm-none-eabi/include/c++/10.3.1/cmath ****   fmax(float __x, float __y)
1419:/Applications/ARM/arm-none-eabi/include/c++/10.3.1/cmath ****   { return __builtin_fmaxf(__x, __y); }
1420:/Applications/ARM/arm-none-eabi/include/c++/10.3.1/cmath **** 
1421:/Applications/ARM/arm-none-eabi/include/c++/10.3.1/cmath ****   constexpr long double
1422:/Applications/ARM/arm-none-eabi/include/c++/10.3.1/cmath ****   fmax(long double __x, long double __y)
1423:/Applications/ARM/arm-none-eabi/include/c++/10.3.1/cmath ****   { return __builtin_fmaxl(__x, __y); }
1424:/Applications/ARM/arm-none-eabi/include/c++/10.3.1/cmath **** #endif
1425:/Applications/ARM/arm-none-eabi/include/c++/10.3.1/cmath **** 
1426:/Applications/ARM/arm-none-eabi/include/c++/10.3.1/cmath **** #ifndef __CORRECT_ISO_CPP11_MATH_H_PROTO_INT
1427:/Applications/ARM/arm-none-eabi/include/c++/10.3.1/cmath ****   template<typename _Tp, typename _Up>
1428:/Applications/ARM/arm-none-eabi/include/c++/10.3.1/cmath ****     constexpr typename __gnu_cxx::__promote_2<_Tp, _Up>::__type
1429:/Applications/ARM/arm-none-eabi/include/c++/10.3.1/cmath ****     fmax(_Tp __x, _Up __y)
1430:/Applications/ARM/arm-none-eabi/include/c++/10.3.1/cmath ****     {
1431:/Applications/ARM/arm-none-eabi/include/c++/10.3.1/cmath ****       typedef typename __gnu_cxx::__promote_2<_Tp, _Up>::__type __type;
1432:/Applications/ARM/arm-none-eabi/include/c++/10.3.1/cmath ****       return fmax(__type(__x), __type(__y));
1433:/Applications/ARM/arm-none-eabi/include/c++/10.3.1/cmath ****     }
1434:/Applications/ARM/arm-none-eabi/include/c++/10.3.1/cmath **** #endif
1435:/Applications/ARM/arm-none-eabi/include/c++/10.3.1/cmath **** 
1436:/Applications/ARM/arm-none-eabi/include/c++/10.3.1/cmath **** #ifndef __CORRECT_ISO_CPP11_MATH_H_PROTO_FP
1437:/Applications/ARM/arm-none-eabi/include/c++/10.3.1/cmath ****   constexpr float
1438:/Applications/ARM/arm-none-eabi/include/c++/10.3.1/cmath ****   fmin(float __x, float __y)
1439:/Applications/ARM/arm-none-eabi/include/c++/10.3.1/cmath ****   { return __builtin_fminf(__x, __y); }
1440:/Applications/ARM/arm-none-eabi/include/c++/10.3.1/cmath **** 
1441:/Applications/ARM/arm-none-eabi/include/c++/10.3.1/cmath ****   constexpr long double
1442:/Applications/ARM/arm-none-eabi/include/c++/10.3.1/cmath ****   fmin(long double __x, long double __y)
1443:/Applications/ARM/arm-none-eabi/include/c++/10.3.1/cmath ****   { return __builtin_fminl(__x, __y); }
1444:/Applications/ARM/arm-none-eabi/include/c++/10.3.1/cmath **** #endif
1445:/Applications/ARM/arm-none-eabi/include/c++/10.3.1/cmath **** 
1446:/Applications/ARM/arm-none-eabi/include/c++/10.3.1/cmath **** #ifndef __CORRECT_ISO_CPP11_MATH_H_PROTO_INT
1447:/Applications/ARM/arm-none-eabi/include/c++/10.3.1/cmath ****   template<typename _Tp, typename _Up>
1448:/Applications/ARM/arm-none-eabi/include/c++/10.3.1/cmath ****     constexpr typename __gnu_cxx::__promote_2<_Tp, _Up>::__type
1449:/Applications/ARM/arm-none-eabi/include/c++/10.3.1/cmath ****     fmin(_Tp __x, _Up __y)
1450:/Applications/ARM/arm-none-eabi/include/c++/10.3.1/cmath ****     {
1451:/Applications/ARM/arm-none-eabi/include/c++/10.3.1/cmath ****       typedef typename __gnu_cxx::__promote_2<_Tp, _Up>::__type __type;
1452:/Applications/ARM/arm-none-eabi/include/c++/10.3.1/cmath ****       return fmin(__type(__x), __type(__y));
1453:/Applications/ARM/arm-none-eabi/include/c++/10.3.1/cmath ****     }
